

Microchip MPLAB XC8 Assembler V2.36 build 20220127204148 
                                                                                               Sat Aug 16 17:42:19 2025

Microchip MPLAB XC8 C Compiler v2.36 (Free license) build 20220127204148 Og1 
     1                           	processor	16F18323
     2                           	pagewidth 120
     3                           	opt	flic
     4                           	psect	idataBANK0,global,class=CODE,delta=2,noexec
     5                           	psect	stringtext1,global,class=STRCODE,delta=2,noexec
     6                           	psect	nvBANK0,global,class=BANK0,space=1,delta=1,noexec
     7                           	psect	cinit,global,class=CODE,merge=1,delta=2
     8                           	psect	bssBANK0,global,class=BANK0,space=1,delta=1,noexec
     9                           	psect	dataBANK0,global,class=BANK0,space=1,delta=1,noexec
    10                           	psect	inittext,global,class=CODE,delta=2
    11                           	psect	cstackCOMMON,global,class=COMMON,space=1,delta=1,noexec
    12                           	psect	cstackBANK0,global,class=BANK0,space=1,delta=1,noexec
    13                           	psect	maintext,global,class=CODE,merge=1,split=1,delta=2
    14                           	psect	text1,local,class=CODE,merge=1,delta=2
    15                           	psect	text2,local,class=CODE,merge=1,delta=2
    16                           	psect	text3,local,class=CODE,merge=1,delta=2
    17                           	psect	text4,local,class=CODE,merge=1,delta=2
    18                           	psect	text5,local,class=CODE,merge=1,delta=2
    19                           	psect	text6,local,class=CODE,merge=1,delta=2
    20                           	psect	text7,local,class=CODE,merge=1,delta=2
    21                           	psect	text8,local,class=CODE,merge=1,delta=2
    22                           	psect	text9,local,class=CODE,merge=1,delta=2
    23                           	psect	text10,local,class=CODE,merge=1,delta=2
    24                           	psect	text11,local,class=CODE,merge=1,delta=2
    25                           	psect	text12,local,class=CODE,merge=1,delta=2
    26                           	psect	text13,local,class=CODE,merge=1,delta=2
    27                           	psect	text14,local,class=CODE,merge=1,delta=2
    28                           	psect	text15,local,class=CODE,merge=1,delta=2
    29                           	psect	text16,local,class=CODE,merge=1,delta=2
    30                           	psect	text17,local,class=CODE,merge=1,delta=2
    31                           	psect	text18,local,class=CODE,merge=1,delta=2
    32                           	psect	intentry,global,class=CODE,delta=2
    33                           	psect	text20,local,class=CODE,merge=1,delta=2
    34                           	psect	text21,local,class=CODE,merge=1,delta=2
    35                           	psect	text22,local,class=CODE,merge=1,delta=2
    36                           	psect	idloc,global,abs,ovrld,class=IDLOC,space=5,delta=2,noexec
    37                           	psect	config,global,abs,ovrld,class=CONFIG,space=4,delta=2,noexec
    38                           	dabs	1,0x7E,2
    39  0000                     
    40                           ; Generated 28/03/2025 GMT
    41                           ; 
    42                           ; Copyright © 2025, Microchip Technology Inc. and its subsidiaries ("Microchip")
    43                           ; All rights reserved.
    44                           ; 
    45                           ; This software is developed by Microchip Technology Inc. and its subsidiaries ("Microch
      +                          ip").
    46                           ; 
    47                           ; Redistribution and use in source and binary forms, with or without modification, are
    48                           ; permitted provided that the following conditions are met:
    49                           ; 
    50                           ;     1. Redistributions of source code must retain the above copyright notice, this lis
      +                          t of
    51                           ;        conditions and the following disclaimer.
    52                           ; 
    53                           ;     2. Redistributions in binary form must reproduce the above copyright notice, this 
      +                          list
    54                           ;        of conditions and the following disclaimer in the documentation and/or other
    55                           ;        materials provided with the distribution. Publication is not required when
    56                           ;        this file is used in an embedded application.
    57                           ; 
    58                           ;     3. Microchip's name may not be used to endorse or promote products derived from th
      +                          is
    59                           ;        software without specific prior written permission.
    60                           ; 
    61                           ; THIS SOFTWARE IS PROVIDED BY MICROCHIP "AS IS" AND ANY EXPRESS OR IMPLIED WARRANTIES,
    62                           ; INCLUDING, BUT NOT LIMITED TO, THE IMPLIED WARRANTIES OF MERCHANTABILITY AND FITNESS F
      +                          OR
    63                           ; PURPOSE ARE DISCLAIMED.  IN NO EVENT SHALL MICROCHIP BE LIABLE FOR ANY DIRECT, INDIREC
      +                          T,
    64                           ; INCIDENTAL, SPECIAL, EXEMPLARY, OR CONSEQUENTIAL DAMAGES (INCLUDING BUT NOT LIMITED TO
    65                           ; PROCUREMENT OF SUBSTITUTE GOODS OR SERVICES; LOSS OF USE, DATA OR PROFITS; OR BUSINESS
    66                           ; INTERRUPTION) HOWSOEVER CAUSED AND ON ANY THEORY OF LIABILITY, WHETHER IN CONTRACT, ST
      +                          RICT
    67                           ; LIABILITY, OR TORT (INCLUDING NEGLIGENCE OR OTHERWISE) ARISING IN ANY WAY OUT OF THE U
      +                          SE OF
    68                           ; THIS SOFTWARE, EVEN IF ADVISED OF THE POSSIBILITY OF SUCH DAMAGE.
    69                           ; 
    70                           ; 
    71                           ; Code-generator required, PIC16F18323 Definitions
    72                           ; 
    73                           ; SFR Addresses
    74  0000                     	;# 
    75  0001                     	;# 
    76  0002                     	;# 
    77  0003                     	;# 
    78  0004                     	;# 
    79  0005                     	;# 
    80  0006                     	;# 
    81  0007                     	;# 
    82  0008                     	;# 
    83  0009                     	;# 
    84  000A                     	;# 
    85  000B                     	;# 
    86  000C                     	;# 
    87  000E                     	;# 
    88  0010                     	;# 
    89  0011                     	;# 
    90  0012                     	;# 
    91  0013                     	;# 
    92  0014                     	;# 
    93  0015                     	;# 
    94  0015                     	;# 
    95  0016                     	;# 
    96  0016                     	;# 
    97  0017                     	;# 
    98  0018                     	;# 
    99  0019                     	;# 
   100  0019                     	;# 
   101  001A                     	;# 
   102  001B                     	;# 
   103  001C                     	;# 
   104  001D                     	;# 
   105  001E                     	;# 
   106  001F                     	;# 
   107  008C                     	;# 
   108  008E                     	;# 
   109  0090                     	;# 
   110  0091                     	;# 
   111  0092                     	;# 
   112  0093                     	;# 
   113  0094                     	;# 
   114  0097                     	;# 
   115  009B                     	;# 
   116  009B                     	;# 
   117  009C                     	;# 
   118  009D                     	;# 
   119  009E                     	;# 
   120  009F                     	;# 
   121  010C                     	;# 
   122  010E                     	;# 
   123  0111                     	;# 
   124  0112                     	;# 
   125  0113                     	;# 
   126  0114                     	;# 
   127  0115                     	;# 
   128  0116                     	;# 
   129  0117                     	;# 
   130  0118                     	;# 
   131  0119                     	;# 
   132  018C                     	;# 
   133  018E                     	;# 
   134  0197                     	;# 
   135  0199                     	;# 
   136  0199                     	;# 
   137  0199                     	;# 
   138  019A                     	;# 
   139  019A                     	;# 
   140  019A                     	;# 
   141  019B                     	;# 
   142  019B                     	;# 
   143  019B                     	;# 
   144  019B                     	;# 
   145  019B                     	;# 
   146  019C                     	;# 
   147  019C                     	;# 
   148  019C                     	;# 
   149  019D                     	;# 
   150  019D                     	;# 
   151  019D                     	;# 
   152  019E                     	;# 
   153  019E                     	;# 
   154  019E                     	;# 
   155  019F                     	;# 
   156  019F                     	;# 
   157  019F                     	;# 
   158  019F                     	;# 
   159  019F                     	;# 
   160  020C                     	;# 
   161  020E                     	;# 
   162  0211                     	;# 
   163  0211                     	;# 
   164  0212                     	;# 
   165  0212                     	;# 
   166  0213                     	;# 
   167  0213                     	;# 
   168  0214                     	;# 
   169  0214                     	;# 
   170  0215                     	;# 
   171  0215                     	;# 
   172  0215                     	;# 
   173  0215                     	;# 
   174  0216                     	;# 
   175  0216                     	;# 
   176  0217                     	;# 
   177  0217                     	;# 
   178  028C                     	;# 
   179  028E                     	;# 
   180  0291                     	;# 
   181  0291                     	;# 
   182  0292                     	;# 
   183  0293                     	;# 
   184  0294                     	;# 
   185  0295                     	;# 
   186  0295                     	;# 
   187  0296                     	;# 
   188  0297                     	;# 
   189  0298                     	;# 
   190  030C                     	;# 
   191  030E                     	;# 
   192  038C                     	;# 
   193  038E                     	;# 
   194  0391                     	;# 
   195  0392                     	;# 
   196  0393                     	;# 
   197  0397                     	;# 
   198  0398                     	;# 
   199  0399                     	;# 
   200  039A                     	;# 
   201  039C                     	;# 
   202  039D                     	;# 
   203  039E                     	;# 
   204  039F                     	;# 
   205  0498                     	;# 
   206  0498                     	;# 
   207  0499                     	;# 
   208  049A                     	;# 
   209  049B                     	;# 
   210  049B                     	;# 
   211  049C                     	;# 
   212  049D                     	;# 
   213  049E                     	;# 
   214  049F                     	;# 
   215  0617                     	;# 
   216  0618                     	;# 
   217  0619                     	;# 
   218  0619                     	;# 
   219  061A                     	;# 
   220  061B                     	;# 
   221  061C                     	;# 
   222  061C                     	;# 
   223  0691                     	;# 
   224  0692                     	;# 
   225  0693                     	;# 
   226  0694                     	;# 
   227  0695                     	;# 
   228  0696                     	;# 
   229  0697                     	;# 
   230  0698                     	;# 
   231  0699                     	;# 
   232  0891                     	;# 
   233  0891                     	;# 
   234  0891                     	;# 
   235  0891                     	;# 
   236  0891                     	;# 
   237  0891                     	;# 
   238  0892                     	;# 
   239  0892                     	;# 
   240  0892                     	;# 
   241  0893                     	;# 
   242  0893                     	;# 
   243  0893                     	;# 
   244  0893                     	;# 
   245  0893                     	;# 
   246  0893                     	;# 
   247  0894                     	;# 
   248  0894                     	;# 
   249  0894                     	;# 
   250  0895                     	;# 
   251  0895                     	;# 
   252  0895                     	;# 
   253  0896                     	;# 
   254  0896                     	;# 
   255  0896                     	;# 
   256  089B                     	;# 
   257  0911                     	;# 
   258  0912                     	;# 
   259  0913                     	;# 
   260  0914                     	;# 
   261  0915                     	;# 
   262  0916                     	;# 
   263  0918                     	;# 
   264  0919                     	;# 
   265  091A                     	;# 
   266  091B                     	;# 
   267  091C                     	;# 
   268  091D                     	;# 
   269  091E                     	;# 
   270  091F                     	;# 
   271  0E0F                     	;# 
   272  0E10                     	;# 
   273  0E11                     	;# 
   274  0E12                     	;# 
   275  0E13                     	;# 
   276  0E14                     	;# 
   277  0E15                     	;# 
   278  0E18                     	;# 
   279  0E1A                     	;# 
   280  0E1B                     	;# 
   281  0E1C                     	;# 
   282  0E20                     	;# 
   283  0E21                     	;# 
   284  0E22                     	;# 
   285  0E24                     	;# 
   286  0E25                     	;# 
   287  0E28                     	;# 
   288  0E29                     	;# 
   289  0E2A                     	;# 
   290  0E2B                     	;# 
   291  0E90                     	;# 
   292  0E91                     	;# 
   293  0E92                     	;# 
   294  0E94                     	;# 
   295  0E95                     	;# 
   296  0EA0                     	;# 
   297  0EA1                     	;# 
   298  0EA2                     	;# 
   299  0EA3                     	;# 
   300  0EA4                     	;# 
   301  0EA5                     	;# 
   302  0F0F                     	;# 
   303  0F10                     	;# 
   304  0F11                     	;# 
   305  0F12                     	;# 
   306  0F13                     	;# 
   307  0F14                     	;# 
   308  0F15                     	;# 
   309  0F16                     	;# 
   310  0F17                     	;# 
   311  0F18                     	;# 
   312  0F19                     	;# 
   313  0F1A                     	;# 
   314  0F1B                     	;# 
   315  0F1C                     	;# 
   316  0F1D                     	;# 
   317  0F1E                     	;# 
   318  0F1F                     	;# 
   319  0F20                     	;# 
   320  0F21                     	;# 
   321  0F22                     	;# 
   322  0F23                     	;# 
   323  0FE4                     	;# 
   324  0FE5                     	;# 
   325  0FE6                     	;# 
   326  0FE7                     	;# 
   327  0FE8                     	;# 
   328  0FE9                     	;# 
   329  0FEA                     	;# 
   330  0FEB                     	;# 
   331  0FED                     	;# 
   332  0FEE                     	;# 
   333  0FEF                     	;# 
   334  0000                     	;# 
   335  0001                     	;# 
   336  0002                     	;# 
   337  0003                     	;# 
   338  0004                     	;# 
   339  0005                     	;# 
   340  0006                     	;# 
   341  0007                     	;# 
   342  0008                     	;# 
   343  0009                     	;# 
   344  000A                     	;# 
   345  000B                     	;# 
   346  000C                     	;# 
   347  000E                     	;# 
   348  0010                     	;# 
   349  0011                     	;# 
   350  0012                     	;# 
   351  0013                     	;# 
   352  0014                     	;# 
   353  0015                     	;# 
   354  0015                     	;# 
   355  0016                     	;# 
   356  0016                     	;# 
   357  0017                     	;# 
   358  0018                     	;# 
   359  0019                     	;# 
   360  0019                     	;# 
   361  001A                     	;# 
   362  001B                     	;# 
   363  001C                     	;# 
   364  001D                     	;# 
   365  001E                     	;# 
   366  001F                     	;# 
   367  008C                     	;# 
   368  008E                     	;# 
   369  0090                     	;# 
   370  0091                     	;# 
   371  0092                     	;# 
   372  0093                     	;# 
   373  0094                     	;# 
   374  0097                     	;# 
   375  009B                     	;# 
   376  009B                     	;# 
   377  009C                     	;# 
   378  009D                     	;# 
   379  009E                     	;# 
   380  009F                     	;# 
   381  010C                     	;# 
   382  010E                     	;# 
   383  0111                     	;# 
   384  0112                     	;# 
   385  0113                     	;# 
   386  0114                     	;# 
   387  0115                     	;# 
   388  0116                     	;# 
   389  0117                     	;# 
   390  0118                     	;# 
   391  0119                     	;# 
   392  018C                     	;# 
   393  018E                     	;# 
   394  0197                     	;# 
   395  0199                     	;# 
   396  0199                     	;# 
   397  0199                     	;# 
   398  019A                     	;# 
   399  019A                     	;# 
   400  019A                     	;# 
   401  019B                     	;# 
   402  019B                     	;# 
   403  019B                     	;# 
   404  019B                     	;# 
   405  019B                     	;# 
   406  019C                     	;# 
   407  019C                     	;# 
   408  019C                     	;# 
   409  019D                     	;# 
   410  019D                     	;# 
   411  019D                     	;# 
   412  019E                     	;# 
   413  019E                     	;# 
   414  019E                     	;# 
   415  019F                     	;# 
   416  019F                     	;# 
   417  019F                     	;# 
   418  019F                     	;# 
   419  019F                     	;# 
   420  020C                     	;# 
   421  020E                     	;# 
   422  0211                     	;# 
   423  0211                     	;# 
   424  0212                     	;# 
   425  0212                     	;# 
   426  0213                     	;# 
   427  0213                     	;# 
   428  0214                     	;# 
   429  0214                     	;# 
   430  0215                     	;# 
   431  0215                     	;# 
   432  0215                     	;# 
   433  0215                     	;# 
   434  0216                     	;# 
   435  0216                     	;# 
   436  0217                     	;# 
   437  0217                     	;# 
   438  028C                     	;# 
   439  028E                     	;# 
   440  0291                     	;# 
   441  0291                     	;# 
   442  0292                     	;# 
   443  0293                     	;# 
   444  0294                     	;# 
   445  0295                     	;# 
   446  0295                     	;# 
   447  0296                     	;# 
   448  0297                     	;# 
   449  0298                     	;# 
   450  030C                     	;# 
   451  030E                     	;# 
   452  038C                     	;# 
   453  038E                     	;# 
   454  0391                     	;# 
   455  0392                     	;# 
   456  0393                     	;# 
   457  0397                     	;# 
   458  0398                     	;# 
   459  0399                     	;# 
   460  039A                     	;# 
   461  039C                     	;# 
   462  039D                     	;# 
   463  039E                     	;# 
   464  039F                     	;# 
   465  0498                     	;# 
   466  0498                     	;# 
   467  0499                     	;# 
   468  049A                     	;# 
   469  049B                     	;# 
   470  049B                     	;# 
   471  049C                     	;# 
   472  049D                     	;# 
   473  049E                     	;# 
   474  049F                     	;# 
   475  0617                     	;# 
   476  0618                     	;# 
   477  0619                     	;# 
   478  0619                     	;# 
   479  061A                     	;# 
   480  061B                     	;# 
   481  061C                     	;# 
   482  061C                     	;# 
   483  0691                     	;# 
   484  0692                     	;# 
   485  0693                     	;# 
   486  0694                     	;# 
   487  0695                     	;# 
   488  0696                     	;# 
   489  0697                     	;# 
   490  0698                     	;# 
   491  0699                     	;# 
   492  0891                     	;# 
   493  0891                     	;# 
   494  0891                     	;# 
   495  0891                     	;# 
   496  0891                     	;# 
   497  0891                     	;# 
   498  0892                     	;# 
   499  0892                     	;# 
   500  0892                     	;# 
   501  0893                     	;# 
   502  0893                     	;# 
   503  0893                     	;# 
   504  0893                     	;# 
   505  0893                     	;# 
   506  0893                     	;# 
   507  0894                     	;# 
   508  0894                     	;# 
   509  0894                     	;# 
   510  0895                     	;# 
   511  0895                     	;# 
   512  0895                     	;# 
   513  0896                     	;# 
   514  0896                     	;# 
   515  0896                     	;# 
   516  089B                     	;# 
   517  0911                     	;# 
   518  0912                     	;# 
   519  0913                     	;# 
   520  0914                     	;# 
   521  0915                     	;# 
   522  0916                     	;# 
   523  0918                     	;# 
   524  0919                     	;# 
   525  091A                     	;# 
   526  091B                     	;# 
   527  091C                     	;# 
   528  091D                     	;# 
   529  091E                     	;# 
   530  091F                     	;# 
   531  0E0F                     	;# 
   532  0E10                     	;# 
   533  0E11                     	;# 
   534  0E12                     	;# 
   535  0E13                     	;# 
   536  0E14                     	;# 
   537  0E15                     	;# 
   538  0E18                     	;# 
   539  0E1A                     	;# 
   540  0E1B                     	;# 
   541  0E1C                     	;# 
   542  0E20                     	;# 
   543  0E21                     	;# 
   544  0E22                     	;# 
   545  0E24                     	;# 
   546  0E25                     	;# 
   547  0E28                     	;# 
   548  0E29                     	;# 
   549  0E2A                     	;# 
   550  0E2B                     	;# 
   551  0E90                     	;# 
   552  0E91                     	;# 
   553  0E92                     	;# 
   554  0E94                     	;# 
   555  0E95                     	;# 
   556  0EA0                     	;# 
   557  0EA1                     	;# 
   558  0EA2                     	;# 
   559  0EA3                     	;# 
   560  0EA4                     	;# 
   561  0EA5                     	;# 
   562  0F0F                     	;# 
   563  0F10                     	;# 
   564  0F11                     	;# 
   565  0F12                     	;# 
   566  0F13                     	;# 
   567  0F14                     	;# 
   568  0F15                     	;# 
   569  0F16                     	;# 
   570  0F17                     	;# 
   571  0F18                     	;# 
   572  0F19                     	;# 
   573  0F1A                     	;# 
   574  0F1B                     	;# 
   575  0F1C                     	;# 
   576  0F1D                     	;# 
   577  0F1E                     	;# 
   578  0F1F                     	;# 
   579  0F20                     	;# 
   580  0F21                     	;# 
   581  0F22                     	;# 
   582  0F23                     	;# 
   583  0FE4                     	;# 
   584  0FE5                     	;# 
   585  0FE6                     	;# 
   586  0FE7                     	;# 
   587  0FE8                     	;# 
   588  0FE9                     	;# 
   589  0FEA                     	;# 
   590  0FEB                     	;# 
   591  0FED                     	;# 
   592  0FEE                     	;# 
   593  0FEF                     	;# 
   594  0000                     	;# 
   595  0001                     	;# 
   596  0002                     	;# 
   597  0003                     	;# 
   598  0004                     	;# 
   599  0005                     	;# 
   600  0006                     	;# 
   601  0007                     	;# 
   602  0008                     	;# 
   603  0009                     	;# 
   604  000A                     	;# 
   605  000B                     	;# 
   606  000C                     	;# 
   607  000E                     	;# 
   608  0010                     	;# 
   609  0011                     	;# 
   610  0012                     	;# 
   611  0013                     	;# 
   612  0014                     	;# 
   613  0015                     	;# 
   614  0015                     	;# 
   615  0016                     	;# 
   616  0016                     	;# 
   617  0017                     	;# 
   618  0018                     	;# 
   619  0019                     	;# 
   620  0019                     	;# 
   621  001A                     	;# 
   622  001B                     	;# 
   623  001C                     	;# 
   624  001D                     	;# 
   625  001E                     	;# 
   626  001F                     	;# 
   627  008C                     	;# 
   628  008E                     	;# 
   629  0090                     	;# 
   630  0091                     	;# 
   631  0092                     	;# 
   632  0093                     	;# 
   633  0094                     	;# 
   634  0097                     	;# 
   635  009B                     	;# 
   636  009B                     	;# 
   637  009C                     	;# 
   638  009D                     	;# 
   639  009E                     	;# 
   640  009F                     	;# 
   641  010C                     	;# 
   642  010E                     	;# 
   643  0111                     	;# 
   644  0112                     	;# 
   645  0113                     	;# 
   646  0114                     	;# 
   647  0115                     	;# 
   648  0116                     	;# 
   649  0117                     	;# 
   650  0118                     	;# 
   651  0119                     	;# 
   652  018C                     	;# 
   653  018E                     	;# 
   654  0197                     	;# 
   655  0199                     	;# 
   656  0199                     	;# 
   657  0199                     	;# 
   658  019A                     	;# 
   659  019A                     	;# 
   660  019A                     	;# 
   661  019B                     	;# 
   662  019B                     	;# 
   663  019B                     	;# 
   664  019B                     	;# 
   665  019B                     	;# 
   666  019C                     	;# 
   667  019C                     	;# 
   668  019C                     	;# 
   669  019D                     	;# 
   670  019D                     	;# 
   671  019D                     	;# 
   672  019E                     	;# 
   673  019E                     	;# 
   674  019E                     	;# 
   675  019F                     	;# 
   676  019F                     	;# 
   677  019F                     	;# 
   678  019F                     	;# 
   679  019F                     	;# 
   680  020C                     	;# 
   681  020E                     	;# 
   682  0211                     	;# 
   683  0211                     	;# 
   684  0212                     	;# 
   685  0212                     	;# 
   686  0213                     	;# 
   687  0213                     	;# 
   688  0214                     	;# 
   689  0214                     	;# 
   690  0215                     	;# 
   691  0215                     	;# 
   692  0215                     	;# 
   693  0215                     	;# 
   694  0216                     	;# 
   695  0216                     	;# 
   696  0217                     	;# 
   697  0217                     	;# 
   698  028C                     	;# 
   699  028E                     	;# 
   700  0291                     	;# 
   701  0291                     	;# 
   702  0292                     	;# 
   703  0293                     	;# 
   704  0294                     	;# 
   705  0295                     	;# 
   706  0295                     	;# 
   707  0296                     	;# 
   708  0297                     	;# 
   709  0298                     	;# 
   710  030C                     	;# 
   711  030E                     	;# 
   712  038C                     	;# 
   713  038E                     	;# 
   714  0391                     	;# 
   715  0392                     	;# 
   716  0393                     	;# 
   717  0397                     	;# 
   718  0398                     	;# 
   719  0399                     	;# 
   720  039A                     	;# 
   721  039C                     	;# 
   722  039D                     	;# 
   723  039E                     	;# 
   724  039F                     	;# 
   725  0498                     	;# 
   726  0498                     	;# 
   727  0499                     	;# 
   728  049A                     	;# 
   729  049B                     	;# 
   730  049B                     	;# 
   731  049C                     	;# 
   732  049D                     	;# 
   733  049E                     	;# 
   734  049F                     	;# 
   735  0617                     	;# 
   736  0618                     	;# 
   737  0619                     	;# 
   738  0619                     	;# 
   739  061A                     	;# 
   740  061B                     	;# 
   741  061C                     	;# 
   742  061C                     	;# 
   743  0691                     	;# 
   744  0692                     	;# 
   745  0693                     	;# 
   746  0694                     	;# 
   747  0695                     	;# 
   748  0696                     	;# 
   749  0697                     	;# 
   750  0698                     	;# 
   751  0699                     	;# 
   752  0891                     	;# 
   753  0891                     	;# 
   754  0891                     	;# 
   755  0891                     	;# 
   756  0891                     	;# 
   757  0891                     	;# 
   758  0892                     	;# 
   759  0892                     	;# 
   760  0892                     	;# 
   761  0893                     	;# 
   762  0893                     	;# 
   763  0893                     	;# 
   764  0893                     	;# 
   765  0893                     	;# 
   766  0893                     	;# 
   767  0894                     	;# 
   768  0894                     	;# 
   769  0894                     	;# 
   770  0895                     	;# 
   771  0895                     	;# 
   772  0895                     	;# 
   773  0896                     	;# 
   774  0896                     	;# 
   775  0896                     	;# 
   776  089B                     	;# 
   777  0911                     	;# 
   778  0912                     	;# 
   779  0913                     	;# 
   780  0914                     	;# 
   781  0915                     	;# 
   782  0916                     	;# 
   783  0918                     	;# 
   784  0919                     	;# 
   785  091A                     	;# 
   786  091B                     	;# 
   787  091C                     	;# 
   788  091D                     	;# 
   789  091E                     	;# 
   790  091F                     	;# 
   791  0E0F                     	;# 
   792  0E10                     	;# 
   793  0E11                     	;# 
   794  0E12                     	;# 
   795  0E13                     	;# 
   796  0E14                     	;# 
   797  0E15                     	;# 
   798  0E18                     	;# 
   799  0E1A                     	;# 
   800  0E1B                     	;# 
   801  0E1C                     	;# 
   802  0E20                     	;# 
   803  0E21                     	;# 
   804  0E22                     	;# 
   805  0E24                     	;# 
   806  0E25                     	;# 
   807  0E28                     	;# 
   808  0E29                     	;# 
   809  0E2A                     	;# 
   810  0E2B                     	;# 
   811  0E90                     	;# 
   812  0E91                     	;# 
   813  0E92                     	;# 
   814  0E94                     	;# 
   815  0E95                     	;# 
   816  0EA0                     	;# 
   817  0EA1                     	;# 
   818  0EA2                     	;# 
   819  0EA3                     	;# 
   820  0EA4                     	;# 
   821  0EA5                     	;# 
   822  0F0F                     	;# 
   823  0F10                     	;# 
   824  0F11                     	;# 
   825  0F12                     	;# 
   826  0F13                     	;# 
   827  0F14                     	;# 
   828  0F15                     	;# 
   829  0F16                     	;# 
   830  0F17                     	;# 
   831  0F18                     	;# 
   832  0F19                     	;# 
   833  0F1A                     	;# 
   834  0F1B                     	;# 
   835  0F1C                     	;# 
   836  0F1D                     	;# 
   837  0F1E                     	;# 
   838  0F1F                     	;# 
   839  0F20                     	;# 
   840  0F21                     	;# 
   841  0F22                     	;# 
   842  0F23                     	;# 
   843  0FE4                     	;# 
   844  0FE5                     	;# 
   845  0FE6                     	;# 
   846  0FE7                     	;# 
   847  0FE8                     	;# 
   848  0FE9                     	;# 
   849  0FEA                     	;# 
   850  0FEB                     	;# 
   851  0FED                     	;# 
   852  0FEE                     	;# 
   853  0FEF                     	;# 
   854  0000                     	;# 
   855  0001                     	;# 
   856  0002                     	;# 
   857  0003                     	;# 
   858  0004                     	;# 
   859  0005                     	;# 
   860  0006                     	;# 
   861  0007                     	;# 
   862  0008                     	;# 
   863  0009                     	;# 
   864  000A                     	;# 
   865  000B                     	;# 
   866  000C                     	;# 
   867  000E                     	;# 
   868  0010                     	;# 
   869  0011                     	;# 
   870  0012                     	;# 
   871  0013                     	;# 
   872  0014                     	;# 
   873  0015                     	;# 
   874  0015                     	;# 
   875  0016                     	;# 
   876  0016                     	;# 
   877  0017                     	;# 
   878  0018                     	;# 
   879  0019                     	;# 
   880  0019                     	;# 
   881  001A                     	;# 
   882  001B                     	;# 
   883  001C                     	;# 
   884  001D                     	;# 
   885  001E                     	;# 
   886  001F                     	;# 
   887  008C                     	;# 
   888  008E                     	;# 
   889  0090                     	;# 
   890  0091                     	;# 
   891  0092                     	;# 
   892  0093                     	;# 
   893  0094                     	;# 
   894  0097                     	;# 
   895  009B                     	;# 
   896  009B                     	;# 
   897  009C                     	;# 
   898  009D                     	;# 
   899  009E                     	;# 
   900  009F                     	;# 
   901  010C                     	;# 
   902  010E                     	;# 
   903  0111                     	;# 
   904  0112                     	;# 
   905  0113                     	;# 
   906  0114                     	;# 
   907  0115                     	;# 
   908  0116                     	;# 
   909  0117                     	;# 
   910  0118                     	;# 
   911  0119                     	;# 
   912  018C                     	;# 
   913  018E                     	;# 
   914  0197                     	;# 
   915  0199                     	;# 
   916  0199                     	;# 
   917  0199                     	;# 
   918  019A                     	;# 
   919  019A                     	;# 
   920  019A                     	;# 
   921  019B                     	;# 
   922  019B                     	;# 
   923  019B                     	;# 
   924  019B                     	;# 
   925  019B                     	;# 
   926  019C                     	;# 
   927  019C                     	;# 
   928  019C                     	;# 
   929  019D                     	;# 
   930  019D                     	;# 
   931  019D                     	;# 
   932  019E                     	;# 
   933  019E                     	;# 
   934  019E                     	;# 
   935  019F                     	;# 
   936  019F                     	;# 
   937  019F                     	;# 
   938  019F                     	;# 
   939  019F                     	;# 
   940  020C                     	;# 
   941  020E                     	;# 
   942  0211                     	;# 
   943  0211                     	;# 
   944  0212                     	;# 
   945  0212                     	;# 
   946  0213                     	;# 
   947  0213                     	;# 
   948  0214                     	;# 
   949  0214                     	;# 
   950  0215                     	;# 
   951  0215                     	;# 
   952  0215                     	;# 
   953  0215                     	;# 
   954  0216                     	;# 
   955  0216                     	;# 
   956  0217                     	;# 
   957  0217                     	;# 
   958  028C                     	;# 
   959  028E                     	;# 
   960  0291                     	;# 
   961  0291                     	;# 
   962  0292                     	;# 
   963  0293                     	;# 
   964  0294                     	;# 
   965  0295                     	;# 
   966  0295                     	;# 
   967  0296                     	;# 
   968  0297                     	;# 
   969  0298                     	;# 
   970  030C                     	;# 
   971  030E                     	;# 
   972  038C                     	;# 
   973  038E                     	;# 
   974  0391                     	;# 
   975  0392                     	;# 
   976  0393                     	;# 
   977  0397                     	;# 
   978  0398                     	;# 
   979  0399                     	;# 
   980  039A                     	;# 
   981  039C                     	;# 
   982  039D                     	;# 
   983  039E                     	;# 
   984  039F                     	;# 
   985  0498                     	;# 
   986  0498                     	;# 
   987  0499                     	;# 
   988  049A                     	;# 
   989  049B                     	;# 
   990  049B                     	;# 
   991  049C                     	;# 
   992  049D                     	;# 
   993  049E                     	;# 
   994  049F                     	;# 
   995  0617                     	;# 
   996  0618                     	;# 
   997  0619                     	;# 
   998  0619                     	;# 
   999  061A                     	;# 
  1000  061B                     	;# 
  1001  061C                     	;# 
  1002  061C                     	;# 
  1003  0691                     	;# 
  1004  0692                     	;# 
  1005  0693                     	;# 
  1006  0694                     	;# 
  1007  0695                     	;# 
  1008  0696                     	;# 
  1009  0697                     	;# 
  1010  0698                     	;# 
  1011  0699                     	;# 
  1012  0891                     	;# 
  1013  0891                     	;# 
  1014  0891                     	;# 
  1015  0891                     	;# 
  1016  0891                     	;# 
  1017  0891                     	;# 
  1018  0892                     	;# 
  1019  0892                     	;# 
  1020  0892                     	;# 
  1021  0893                     	;# 
  1022  0893                     	;# 
  1023  0893                     	;# 
  1024  0893                     	;# 
  1025  0893                     	;# 
  1026  0893                     	;# 
  1027  0894                     	;# 
  1028  0894                     	;# 
  1029  0894                     	;# 
  1030  0895                     	;# 
  1031  0895                     	;# 
  1032  0895                     	;# 
  1033  0896                     	;# 
  1034  0896                     	;# 
  1035  0896                     	;# 
  1036  089B                     	;# 
  1037  0911                     	;# 
  1038  0912                     	;# 
  1039  0913                     	;# 
  1040  0914                     	;# 
  1041  0915                     	;# 
  1042  0916                     	;# 
  1043  0918                     	;# 
  1044  0919                     	;# 
  1045  091A                     	;# 
  1046  091B                     	;# 
  1047  091C                     	;# 
  1048  091D                     	;# 
  1049  091E                     	;# 
  1050  091F                     	;# 
  1051  0E0F                     	;# 
  1052  0E10                     	;# 
  1053  0E11                     	;# 
  1054  0E12                     	;# 
  1055  0E13                     	;# 
  1056  0E14                     	;# 
  1057  0E15                     	;# 
  1058  0E18                     	;# 
  1059  0E1A                     	;# 
  1060  0E1B                     	;# 
  1061  0E1C                     	;# 
  1062  0E20                     	;# 
  1063  0E21                     	;# 
  1064  0E22                     	;# 
  1065  0E24                     	;# 
  1066  0E25                     	;# 
  1067  0E28                     	;# 
  1068  0E29                     	;# 
  1069  0E2A                     	;# 
  1070  0E2B                     	;# 
  1071  0E90                     	;# 
  1072  0E91                     	;# 
  1073  0E92                     	;# 
  1074  0E94                     	;# 
  1075  0E95                     	;# 
  1076  0EA0                     	;# 
  1077  0EA1                     	;# 
  1078  0EA2                     	;# 
  1079  0EA3                     	;# 
  1080  0EA4                     	;# 
  1081  0EA5                     	;# 
  1082  0F0F                     	;# 
  1083  0F10                     	;# 
  1084  0F11                     	;# 
  1085  0F12                     	;# 
  1086  0F13                     	;# 
  1087  0F14                     	;# 
  1088  0F15                     	;# 
  1089  0F16                     	;# 
  1090  0F17                     	;# 
  1091  0F18                     	;# 
  1092  0F19                     	;# 
  1093  0F1A                     	;# 
  1094  0F1B                     	;# 
  1095  0F1C                     	;# 
  1096  0F1D                     	;# 
  1097  0F1E                     	;# 
  1098  0F1F                     	;# 
  1099  0F20                     	;# 
  1100  0F21                     	;# 
  1101  0F22                     	;# 
  1102  0F23                     	;# 
  1103  0FE4                     	;# 
  1104  0FE5                     	;# 
  1105  0FE6                     	;# 
  1106  0FE7                     	;# 
  1107  0FE8                     	;# 
  1108  0FE9                     	;# 
  1109  0FEA                     	;# 
  1110  0FEB                     	;# 
  1111  0FED                     	;# 
  1112  0FEE                     	;# 
  1113  0FEF                     	;# 
  1114  0000                     	;# 
  1115  0001                     	;# 
  1116  0002                     	;# 
  1117  0003                     	;# 
  1118  0004                     	;# 
  1119  0005                     	;# 
  1120  0006                     	;# 
  1121  0007                     	;# 
  1122  0008                     	;# 
  1123  0009                     	;# 
  1124  000A                     	;# 
  1125  000B                     	;# 
  1126  000C                     	;# 
  1127  000E                     	;# 
  1128  0010                     	;# 
  1129  0011                     	;# 
  1130  0012                     	;# 
  1131  0013                     	;# 
  1132  0014                     	;# 
  1133  0015                     	;# 
  1134  0015                     	;# 
  1135  0016                     	;# 
  1136  0016                     	;# 
  1137  0017                     	;# 
  1138  0018                     	;# 
  1139  0019                     	;# 
  1140  0019                     	;# 
  1141  001A                     	;# 
  1142  001B                     	;# 
  1143  001C                     	;# 
  1144  001D                     	;# 
  1145  001E                     	;# 
  1146  001F                     	;# 
  1147  008C                     	;# 
  1148  008E                     	;# 
  1149  0090                     	;# 
  1150  0091                     	;# 
  1151  0092                     	;# 
  1152  0093                     	;# 
  1153  0094                     	;# 
  1154  0097                     	;# 
  1155  009B                     	;# 
  1156  009B                     	;# 
  1157  009C                     	;# 
  1158  009D                     	;# 
  1159  009E                     	;# 
  1160  009F                     	;# 
  1161  010C                     	;# 
  1162  010E                     	;# 
  1163  0111                     	;# 
  1164  0112                     	;# 
  1165  0113                     	;# 
  1166  0114                     	;# 
  1167  0115                     	;# 
  1168  0116                     	;# 
  1169  0117                     	;# 
  1170  0118                     	;# 
  1171  0119                     	;# 
  1172  018C                     	;# 
  1173  018E                     	;# 
  1174  0197                     	;# 
  1175  0199                     	;# 
  1176  0199                     	;# 
  1177  0199                     	;# 
  1178  019A                     	;# 
  1179  019A                     	;# 
  1180  019A                     	;# 
  1181  019B                     	;# 
  1182  019B                     	;# 
  1183  019B                     	;# 
  1184  019B                     	;# 
  1185  019B                     	;# 
  1186  019C                     	;# 
  1187  019C                     	;# 
  1188  019C                     	;# 
  1189  019D                     	;# 
  1190  019D                     	;# 
  1191  019D                     	;# 
  1192  019E                     	;# 
  1193  019E                     	;# 
  1194  019E                     	;# 
  1195  019F                     	;# 
  1196  019F                     	;# 
  1197  019F                     	;# 
  1198  019F                     	;# 
  1199  019F                     	;# 
  1200  020C                     	;# 
  1201  020E                     	;# 
  1202  0211                     	;# 
  1203  0211                     	;# 
  1204  0212                     	;# 
  1205  0212                     	;# 
  1206  0213                     	;# 
  1207  0213                     	;# 
  1208  0214                     	;# 
  1209  0214                     	;# 
  1210  0215                     	;# 
  1211  0215                     	;# 
  1212  0215                     	;# 
  1213  0215                     	;# 
  1214  0216                     	;# 
  1215  0216                     	;# 
  1216  0217                     	;# 
  1217  0217                     	;# 
  1218  028C                     	;# 
  1219  028E                     	;# 
  1220  0291                     	;# 
  1221  0291                     	;# 
  1222  0292                     	;# 
  1223  0293                     	;# 
  1224  0294                     	;# 
  1225  0295                     	;# 
  1226  0295                     	;# 
  1227  0296                     	;# 
  1228  0297                     	;# 
  1229  0298                     	;# 
  1230  030C                     	;# 
  1231  030E                     	;# 
  1232  038C                     	;# 
  1233  038E                     	;# 
  1234  0391                     	;# 
  1235  0392                     	;# 
  1236  0393                     	;# 
  1237  0397                     	;# 
  1238  0398                     	;# 
  1239  0399                     	;# 
  1240  039A                     	;# 
  1241  039C                     	;# 
  1242  039D                     	;# 
  1243  039E                     	;# 
  1244  039F                     	;# 
  1245  0498                     	;# 
  1246  0498                     	;# 
  1247  0499                     	;# 
  1248  049A                     	;# 
  1249  049B                     	;# 
  1250  049B                     	;# 
  1251  049C                     	;# 
  1252  049D                     	;# 
  1253  049E                     	;# 
  1254  049F                     	;# 
  1255  0617                     	;# 
  1256  0618                     	;# 
  1257  0619                     	;# 
  1258  0619                     	;# 
  1259  061A                     	;# 
  1260  061B                     	;# 
  1261  061C                     	;# 
  1262  061C                     	;# 
  1263  0691                     	;# 
  1264  0692                     	;# 
  1265  0693                     	;# 
  1266  0694                     	;# 
  1267  0695                     	;# 
  1268  0696                     	;# 
  1269  0697                     	;# 
  1270  0698                     	;# 
  1271  0699                     	;# 
  1272  0891                     	;# 
  1273  0891                     	;# 
  1274  0891                     	;# 
  1275  0891                     	;# 
  1276  0891                     	;# 
  1277  0891                     	;# 
  1278  0892                     	;# 
  1279  0892                     	;# 
  1280  0892                     	;# 
  1281  0893                     	;# 
  1282  0893                     	;# 
  1283  0893                     	;# 
  1284  0893                     	;# 
  1285  0893                     	;# 
  1286  0893                     	;# 
  1287  0894                     	;# 
  1288  0894                     	;# 
  1289  0894                     	;# 
  1290  0895                     	;# 
  1291  0895                     	;# 
  1292  0895                     	;# 
  1293  0896                     	;# 
  1294  0896                     	;# 
  1295  0896                     	;# 
  1296  089B                     	;# 
  1297  0911                     	;# 
  1298  0912                     	;# 
  1299  0913                     	;# 
  1300  0914                     	;# 
  1301  0915                     	;# 
  1302  0916                     	;# 
  1303  0918                     	;# 
  1304  0919                     	;# 
  1305  091A                     	;# 
  1306  091B                     	;# 
  1307  091C                     	;# 
  1308  091D                     	;# 
  1309  091E                     	;# 
  1310  091F                     	;# 
  1311  0E0F                     	;# 
  1312  0E10                     	;# 
  1313  0E11                     	;# 
  1314  0E12                     	;# 
  1315  0E13                     	;# 
  1316  0E14                     	;# 
  1317  0E15                     	;# 
  1318  0E18                     	;# 
  1319  0E1A                     	;# 
  1320  0E1B                     	;# 
  1321  0E1C                     	;# 
  1322  0E20                     	;# 
  1323  0E21                     	;# 
  1324  0E22                     	;# 
  1325  0E24                     	;# 
  1326  0E25                     	;# 
  1327  0E28                     	;# 
  1328  0E29                     	;# 
  1329  0E2A                     	;# 
  1330  0E2B                     	;# 
  1331  0E90                     	;# 
  1332  0E91                     	;# 
  1333  0E92                     	;# 
  1334  0E94                     	;# 
  1335  0E95                     	;# 
  1336  0EA0                     	;# 
  1337  0EA1                     	;# 
  1338  0EA2                     	;# 
  1339  0EA3                     	;# 
  1340  0EA4                     	;# 
  1341  0EA5                     	;# 
  1342  0F0F                     	;# 
  1343  0F10                     	;# 
  1344  0F11                     	;# 
  1345  0F12                     	;# 
  1346  0F13                     	;# 
  1347  0F14                     	;# 
  1348  0F15                     	;# 
  1349  0F16                     	;# 
  1350  0F17                     	;# 
  1351  0F18                     	;# 
  1352  0F19                     	;# 
  1353  0F1A                     	;# 
  1354  0F1B                     	;# 
  1355  0F1C                     	;# 
  1356  0F1D                     	;# 
  1357  0F1E                     	;# 
  1358  0F1F                     	;# 
  1359  0F20                     	;# 
  1360  0F21                     	;# 
  1361  0F22                     	;# 
  1362  0F23                     	;# 
  1363  0FE4                     	;# 
  1364  0FE5                     	;# 
  1365  0FE6                     	;# 
  1366  0FE7                     	;# 
  1367  0FE8                     	;# 
  1368  0FE9                     	;# 
  1369  0FEA                     	;# 
  1370  0FEB                     	;# 
  1371  0FED                     	;# 
  1372  0FEE                     	;# 
  1373  0FEF                     	;# 
  1374  0000                     	;# 
  1375  0001                     	;# 
  1376  0002                     	;# 
  1377  0003                     	;# 
  1378  0004                     	;# 
  1379  0005                     	;# 
  1380  0006                     	;# 
  1381  0007                     	;# 
  1382  0008                     	;# 
  1383  0009                     	;# 
  1384  000A                     	;# 
  1385  000B                     	;# 
  1386  000C                     	;# 
  1387  000E                     	;# 
  1388  0010                     	;# 
  1389  0011                     	;# 
  1390  0012                     	;# 
  1391  0013                     	;# 
  1392  0014                     	;# 
  1393  0015                     	;# 
  1394  0015                     	;# 
  1395  0016                     	;# 
  1396  0016                     	;# 
  1397  0017                     	;# 
  1398  0018                     	;# 
  1399  0019                     	;# 
  1400  0019                     	;# 
  1401  001A                     	;# 
  1402  001B                     	;# 
  1403  001C                     	;# 
  1404  001D                     	;# 
  1405  001E                     	;# 
  1406  001F                     	;# 
  1407  008C                     	;# 
  1408  008E                     	;# 
  1409  0090                     	;# 
  1410  0091                     	;# 
  1411  0092                     	;# 
  1412  0093                     	;# 
  1413  0094                     	;# 
  1414  0097                     	;# 
  1415  009B                     	;# 
  1416  009B                     	;# 
  1417  009C                     	;# 
  1418  009D                     	;# 
  1419  009E                     	;# 
  1420  009F                     	;# 
  1421  010C                     	;# 
  1422  010E                     	;# 
  1423  0111                     	;# 
  1424  0112                     	;# 
  1425  0113                     	;# 
  1426  0114                     	;# 
  1427  0115                     	;# 
  1428  0116                     	;# 
  1429  0117                     	;# 
  1430  0118                     	;# 
  1431  0119                     	;# 
  1432  018C                     	;# 
  1433  018E                     	;# 
  1434  0197                     	;# 
  1435  0199                     	;# 
  1436  0199                     	;# 
  1437  0199                     	;# 
  1438  019A                     	;# 
  1439  019A                     	;# 
  1440  019A                     	;# 
  1441  019B                     	;# 
  1442  019B                     	;# 
  1443  019B                     	;# 
  1444  019B                     	;# 
  1445  019B                     	;# 
  1446  019C                     	;# 
  1447  019C                     	;# 
  1448  019C                     	;# 
  1449  019D                     	;# 
  1450  019D                     	;# 
  1451  019D                     	;# 
  1452  019E                     	;# 
  1453  019E                     	;# 
  1454  019E                     	;# 
  1455  019F                     	;# 
  1456  019F                     	;# 
  1457  019F                     	;# 
  1458  019F                     	;# 
  1459  019F                     	;# 
  1460  020C                     	;# 
  1461  020E                     	;# 
  1462  0211                     	;# 
  1463  0211                     	;# 
  1464  0212                     	;# 
  1465  0212                     	;# 
  1466  0213                     	;# 
  1467  0213                     	;# 
  1468  0214                     	;# 
  1469  0214                     	;# 
  1470  0215                     	;# 
  1471  0215                     	;# 
  1472  0215                     	;# 
  1473  0215                     	;# 
  1474  0216                     	;# 
  1475  0216                     	;# 
  1476  0217                     	;# 
  1477  0217                     	;# 
  1478  028C                     	;# 
  1479  028E                     	;# 
  1480  0291                     	;# 
  1481  0291                     	;# 
  1482  0292                     	;# 
  1483  0293                     	;# 
  1484  0294                     	;# 
  1485  0295                     	;# 
  1486  0295                     	;# 
  1487  0296                     	;# 
  1488  0297                     	;# 
  1489  0298                     	;# 
  1490  030C                     	;# 
  1491  030E                     	;# 
  1492  038C                     	;# 
  1493  038E                     	;# 
  1494  0391                     	;# 
  1495  0392                     	;# 
  1496  0393                     	;# 
  1497  0397                     	;# 
  1498  0398                     	;# 
  1499  0399                     	;# 
  1500  039A                     	;# 
  1501  039C                     	;# 
  1502  039D                     	;# 
  1503  039E                     	;# 
  1504  039F                     	;# 
  1505  0498                     	;# 
  1506  0498                     	;# 
  1507  0499                     	;# 
  1508  049A                     	;# 
  1509  049B                     	;# 
  1510  049B                     	;# 
  1511  049C                     	;# 
  1512  049D                     	;# 
  1513  049E                     	;# 
  1514  049F                     	;# 
  1515  0617                     	;# 
  1516  0618                     	;# 
  1517  0619                     	;# 
  1518  0619                     	;# 
  1519  061A                     	;# 
  1520  061B                     	;# 
  1521  061C                     	;# 
  1522  061C                     	;# 
  1523  0691                     	;# 
  1524  0692                     	;# 
  1525  0693                     	;# 
  1526  0694                     	;# 
  1527  0695                     	;# 
  1528  0696                     	;# 
  1529  0697                     	;# 
  1530  0698                     	;# 
  1531  0699                     	;# 
  1532  0891                     	;# 
  1533  0891                     	;# 
  1534  0891                     	;# 
  1535  0891                     	;# 
  1536  0891                     	;# 
  1537  0891                     	;# 
  1538  0892                     	;# 
  1539  0892                     	;# 
  1540  0892                     	;# 
  1541  0893                     	;# 
  1542  0893                     	;# 
  1543  0893                     	;# 
  1544  0893                     	;# 
  1545  0893                     	;# 
  1546  0893                     	;# 
  1547  0894                     	;# 
  1548  0894                     	;# 
  1549  0894                     	;# 
  1550  0895                     	;# 
  1551  0895                     	;# 
  1552  0895                     	;# 
  1553  0896                     	;# 
  1554  0896                     	;# 
  1555  0896                     	;# 
  1556  089B                     	;# 
  1557  0911                     	;# 
  1558  0912                     	;# 
  1559  0913                     	;# 
  1560  0914                     	;# 
  1561  0915                     	;# 
  1562  0916                     	;# 
  1563  0918                     	;# 
  1564  0919                     	;# 
  1565  091A                     	;# 
  1566  091B                     	;# 
  1567  091C                     	;# 
  1568  091D                     	;# 
  1569  091E                     	;# 
  1570  091F                     	;# 
  1571  0E0F                     	;# 
  1572  0E10                     	;# 
  1573  0E11                     	;# 
  1574  0E12                     	;# 
  1575  0E13                     	;# 
  1576  0E14                     	;# 
  1577  0E15                     	;# 
  1578  0E18                     	;# 
  1579  0E1A                     	;# 
  1580  0E1B                     	;# 
  1581  0E1C                     	;# 
  1582  0E20                     	;# 
  1583  0E21                     	;# 
  1584  0E22                     	;# 
  1585  0E24                     	;# 
  1586  0E25                     	;# 
  1587  0E28                     	;# 
  1588  0E29                     	;# 
  1589  0E2A                     	;# 
  1590  0E2B                     	;# 
  1591  0E90                     	;# 
  1592  0E91                     	;# 
  1593  0E92                     	;# 
  1594  0E94                     	;# 
  1595  0E95                     	;# 
  1596  0EA0                     	;# 
  1597  0EA1                     	;# 
  1598  0EA2                     	;# 
  1599  0EA3                     	;# 
  1600  0EA4                     	;# 
  1601  0EA5                     	;# 
  1602  0F0F                     	;# 
  1603  0F10                     	;# 
  1604  0F11                     	;# 
  1605  0F12                     	;# 
  1606  0F13                     	;# 
  1607  0F14                     	;# 
  1608  0F15                     	;# 
  1609  0F16                     	;# 
  1610  0F17                     	;# 
  1611  0F18                     	;# 
  1612  0F19                     	;# 
  1613  0F1A                     	;# 
  1614  0F1B                     	;# 
  1615  0F1C                     	;# 
  1616  0F1D                     	;# 
  1617  0F1E                     	;# 
  1618  0F1F                     	;# 
  1619  0F20                     	;# 
  1620  0F21                     	;# 
  1621  0F22                     	;# 
  1622  0F23                     	;# 
  1623  0FE4                     	;# 
  1624  0FE5                     	;# 
  1625  0FE6                     	;# 
  1626  0FE7                     	;# 
  1627  0FE8                     	;# 
  1628  0FE9                     	;# 
  1629  0FEA                     	;# 
  1630  0FEB                     	;# 
  1631  0FED                     	;# 
  1632  0FEE                     	;# 
  1633  0FEF                     	;# 
  1634  0000                     	;# 
  1635  0001                     	;# 
  1636  0002                     	;# 
  1637  0003                     	;# 
  1638  0004                     	;# 
  1639  0005                     	;# 
  1640  0006                     	;# 
  1641  0007                     	;# 
  1642  0008                     	;# 
  1643  0009                     	;# 
  1644  000A                     	;# 
  1645  000B                     	;# 
  1646  000C                     	;# 
  1647  000E                     	;# 
  1648  0010                     	;# 
  1649  0011                     	;# 
  1650  0012                     	;# 
  1651  0013                     	;# 
  1652  0014                     	;# 
  1653  0015                     	;# 
  1654  0015                     	;# 
  1655  0016                     	;# 
  1656  0016                     	;# 
  1657  0017                     	;# 
  1658  0018                     	;# 
  1659  0019                     	;# 
  1660  0019                     	;# 
  1661  001A                     	;# 
  1662  001B                     	;# 
  1663  001C                     	;# 
  1664  001D                     	;# 
  1665  001E                     	;# 
  1666  001F                     	;# 
  1667  008C                     	;# 
  1668  008E                     	;# 
  1669  0090                     	;# 
  1670  0091                     	;# 
  1671  0092                     	;# 
  1672  0093                     	;# 
  1673  0094                     	;# 
  1674  0097                     	;# 
  1675  009B                     	;# 
  1676  009B                     	;# 
  1677  009C                     	;# 
  1678  009D                     	;# 
  1679  009E                     	;# 
  1680  009F                     	;# 
  1681  010C                     	;# 
  1682  010E                     	;# 
  1683  0111                     	;# 
  1684  0112                     	;# 
  1685  0113                     	;# 
  1686  0114                     	;# 
  1687  0115                     	;# 
  1688  0116                     	;# 
  1689  0117                     	;# 
  1690  0118                     	;# 
  1691  0119                     	;# 
  1692  018C                     	;# 
  1693  018E                     	;# 
  1694  0197                     	;# 
  1695  0199                     	;# 
  1696  0199                     	;# 
  1697  0199                     	;# 
  1698  019A                     	;# 
  1699  019A                     	;# 
  1700  019A                     	;# 
  1701  019B                     	;# 
  1702  019B                     	;# 
  1703  019B                     	;# 
  1704  019B                     	;# 
  1705  019B                     	;# 
  1706  019C                     	;# 
  1707  019C                     	;# 
  1708  019C                     	;# 
  1709  019D                     	;# 
  1710  019D                     	;# 
  1711  019D                     	;# 
  1712  019E                     	;# 
  1713  019E                     	;# 
  1714  019E                     	;# 
  1715  019F                     	;# 
  1716  019F                     	;# 
  1717  019F                     	;# 
  1718  019F                     	;# 
  1719  019F                     	;# 
  1720  020C                     	;# 
  1721  020E                     	;# 
  1722  0211                     	;# 
  1723  0211                     	;# 
  1724  0212                     	;# 
  1725  0212                     	;# 
  1726  0213                     	;# 
  1727  0213                     	;# 
  1728  0214                     	;# 
  1729  0214                     	;# 
  1730  0215                     	;# 
  1731  0215                     	;# 
  1732  0215                     	;# 
  1733  0215                     	;# 
  1734  0216                     	;# 
  1735  0216                     	;# 
  1736  0217                     	;# 
  1737  0217                     	;# 
  1738  028C                     	;# 
  1739  028E                     	;# 
  1740  0291                     	;# 
  1741  0291                     	;# 
  1742  0292                     	;# 
  1743  0293                     	;# 
  1744  0294                     	;# 
  1745  0295                     	;# 
  1746  0295                     	;# 
  1747  0296                     	;# 
  1748  0297                     	;# 
  1749  0298                     	;# 
  1750  030C                     	;# 
  1751  030E                     	;# 
  1752  038C                     	;# 
  1753  038E                     	;# 
  1754  0391                     	;# 
  1755  0392                     	;# 
  1756  0393                     	;# 
  1757  0397                     	;# 
  1758  0398                     	;# 
  1759  0399                     	;# 
  1760  039A                     	;# 
  1761  039C                     	;# 
  1762  039D                     	;# 
  1763  039E                     	;# 
  1764  039F                     	;# 
  1765  0498                     	;# 
  1766  0498                     	;# 
  1767  0499                     	;# 
  1768  049A                     	;# 
  1769  049B                     	;# 
  1770  049B                     	;# 
  1771  049C                     	;# 
  1772  049D                     	;# 
  1773  049E                     	;# 
  1774  049F                     	;# 
  1775  0617                     	;# 
  1776  0618                     	;# 
  1777  0619                     	;# 
  1778  0619                     	;# 
  1779  061A                     	;# 
  1780  061B                     	;# 
  1781  061C                     	;# 
  1782  061C                     	;# 
  1783  0691                     	;# 
  1784  0692                     	;# 
  1785  0693                     	;# 
  1786  0694                     	;# 
  1787  0695                     	;# 
  1788  0696                     	;# 
  1789  0697                     	;# 
  1790  0698                     	;# 
  1791  0699                     	;# 
  1792  0891                     	;# 
  1793  0891                     	;# 
  1794  0891                     	;# 
  1795  0891                     	;# 
  1796  0891                     	;# 
  1797  0891                     	;# 
  1798  0892                     	;# 
  1799  0892                     	;# 
  1800  0892                     	;# 
  1801  0893                     	;# 
  1802  0893                     	;# 
  1803  0893                     	;# 
  1804  0893                     	;# 
  1805  0893                     	;# 
  1806  0893                     	;# 
  1807  0894                     	;# 
  1808  0894                     	;# 
  1809  0894                     	;# 
  1810  0895                     	;# 
  1811  0895                     	;# 
  1812  0895                     	;# 
  1813  0896                     	;# 
  1814  0896                     	;# 
  1815  0896                     	;# 
  1816  089B                     	;# 
  1817  0911                     	;# 
  1818  0912                     	;# 
  1819  0913                     	;# 
  1820  0914                     	;# 
  1821  0915                     	;# 
  1822  0916                     	;# 
  1823  0918                     	;# 
  1824  0919                     	;# 
  1825  091A                     	;# 
  1826  091B                     	;# 
  1827  091C                     	;# 
  1828  091D                     	;# 
  1829  091E                     	;# 
  1830  091F                     	;# 
  1831  0E0F                     	;# 
  1832  0E10                     	;# 
  1833  0E11                     	;# 
  1834  0E12                     	;# 
  1835  0E13                     	;# 
  1836  0E14                     	;# 
  1837  0E15                     	;# 
  1838  0E18                     	;# 
  1839  0E1A                     	;# 
  1840  0E1B                     	;# 
  1841  0E1C                     	;# 
  1842  0E20                     	;# 
  1843  0E21                     	;# 
  1844  0E22                     	;# 
  1845  0E24                     	;# 
  1846  0E25                     	;# 
  1847  0E28                     	;# 
  1848  0E29                     	;# 
  1849  0E2A                     	;# 
  1850  0E2B                     	;# 
  1851  0E90                     	;# 
  1852  0E91                     	;# 
  1853  0E92                     	;# 
  1854  0E94                     	;# 
  1855  0E95                     	;# 
  1856  0EA0                     	;# 
  1857  0EA1                     	;# 
  1858  0EA2                     	;# 
  1859  0EA3                     	;# 
  1860  0EA4                     	;# 
  1861  0EA5                     	;# 
  1862  0F0F                     	;# 
  1863  0F10                     	;# 
  1864  0F11                     	;# 
  1865  0F12                     	;# 
  1866  0F13                     	;# 
  1867  0F14                     	;# 
  1868  0F15                     	;# 
  1869  0F16                     	;# 
  1870  0F17                     	;# 
  1871  0F18                     	;# 
  1872  0F19                     	;# 
  1873  0F1A                     	;# 
  1874  0F1B                     	;# 
  1875  0F1C                     	;# 
  1876  0F1D                     	;# 
  1877  0F1E                     	;# 
  1878  0F1F                     	;# 
  1879  0F20                     	;# 
  1880  0F21                     	;# 
  1881  0F22                     	;# 
  1882  0F23                     	;# 
  1883  0FE4                     	;# 
  1884  0FE5                     	;# 
  1885  0FE6                     	;# 
  1886  0FE7                     	;# 
  1887  0FE8                     	;# 
  1888  0FE9                     	;# 
  1889  0FEA                     	;# 
  1890  0FEB                     	;# 
  1891  0FED                     	;# 
  1892  0FEE                     	;# 
  1893  0FEF                     	;# 
  1894                           
  1895 ;; Function _EUSART_DefaultFramingErrorHandler is unused but had its address taken
  1896  0000                     
  1897 ;; Function _EUSART_DefaultOverrunErrorHandler is unused but had its address taken
  1898  0000                     
  1899 ;; Function _EUSART_DefaultErrorHandler is unused but had its address taken
  1900  0000                     
  1901                           	psect	idataBANK0
  1902  01D2                     __pidataBANK0:
  1903                           
  1904                           ;initializer for NRF_TX_Init@F5237
  1905  01D2  3441               	retlw	65
  1906  01D3  3441               	retlw	65
  1907  01D4  3441               	retlw	65
  1908  01D5  3441               	retlw	65
  1909  01D6  3441               	retlw	65
  1910                           
  1911                           ;initializer for NRF_RX_Init@F5234
  1912  01D7  3441               	retlw	65
  1913  01D8  3441               	retlw	65
  1914  01D9  3441               	retlw	65
  1915  01DA  3441               	retlw	65
  1916  01DB  3441               	retlw	65
  1917                           
  1918                           ;initializer for main@F5245
  1919  01DC  3444               	retlw	68
  1920                           
  1921                           	psect	stringtext1
  1922  0224                     __pstringtext1:
  1923  0224                     _spi1_configuration:
  1924  0224  3400               	retlw	0
  1925  0225  34C0               	retlw	192
  1926  0226  3401               	retlw	1
  1927  0227  3400               	retlw	0
  1928  0228                     __end_of_spi1_configuration:
  1929                           
  1930                           	psect	nvBANK0
  1931  002B                     __pnvBANK0:
  1932  002B                     _EUSART_ErrorHandler:
  1933  002B                     	ds	2
  1934  002D                     _EUSART_OverrunErrorHandler:
  1935  002D                     	ds	2
  1936  002F                     _EUSART_FramingErrorHandler:
  1937  002F                     	ds	2
  1938  0031                     _IOCAF5_InterruptHandler:
  1939  0031                     	ds	2
  1940  000E                     _PORTCbits	set	14
  1941  0010                     _PIR0bits	set	16
  1942  0011                     _PIR1bits	set	17
  1943  008C                     _TRISAbits	set	140
  1944  0090                     _PIE0bits	set	144
  1945  008E                     _TRISC	set	142
  1946  008C                     _TRISA	set	140
  1947  008E                     _TRISCbits	set	142
  1948  0097                     _WDTCON	set	151
  1949  010E                     _LATCbits	set	270
  1950  010C                     _LATAbits	set	268
  1951  010E                     _LATC	set	270
  1952  010C                     _LATA	set	268
  1953  019A                     _TX1REG	set	410
  1954  0199                     _RC1REG	set	409
  1955  019D                     _RC1STAbits	set	413
  1956  019E                     _TX1STAbits	set	414
  1957  019C                     _SP1BRGH	set	412
  1958  019B                     _SP1BRGL	set	411
  1959  019E                     _TX1STA	set	414
  1960  019D                     _RC1STA	set	413
  1961  019F                     _BAUD1CON	set	415
  1962  018C                     _ANSELA	set	396
  1963  018E                     _ANSELC	set	398
  1964  020E                     _WPUC	set	526
  1965  020C                     _WPUA	set	524
  1966  0211                     _SSP1BUF	set	529
  1967  0216                     _SSP1CON2	set	534
  1968  0215                     _SSP1CON1bits	set	533
  1969  0212                     _SSP1ADD	set	530
  1970  0215                     _SSP1CON1	set	533
  1971  0214                     _SSP1STAT	set	532
  1972  028E                     _ODCONC	set	654
  1973  028C                     _ODCONA	set	652
  1974  030E                     _SLRCONC	set	782
  1975  030C                     _SLRCONA	set	780
  1976  0391                     _IOCAPbits	set	913
  1977  0392                     _IOCANbits	set	914
  1978  0393                     _IOCAFbits	set	915
  1979  038E                     _INLVLC	set	910
  1980  038C                     _INLVLA	set	908
  1981  0916                     _PMD5	set	2326
  1982  0915                     _PMD4	set	2325
  1983  0914                     _PMD3	set	2324
  1984  0913                     _PMD2	set	2323
  1985  0912                     _PMD1	set	2322
  1986  0911                     _PMD0	set	2321
  1987  091E                     _OSCTUNE	set	2334
  1988  091F                     _OSCFRQ	set	2335
  1989  091D                     _OSCEN	set	2333
  1990  091B                     _OSCCON3	set	2331
  1991  0919                     _OSCCON1	set	2329
  1992  0E21                     _SSP1DATPPS	set	3617
  1993  0E20                     _SSP1CLKPPS	set	3616
  1994  0EA2                     _RC2PPS	set	3746
  1995  0EA0                     _RC0PPS	set	3744
  1996                           
  1997                           	psect	cinit
  1998  0016                     start_initialization:	
  1999                           ; #config settings
  2000                           
  2001  0016                     __initialization:
  2002                           
  2003                           ; Initialize objects allocated to BANK0
  2004  0016  30D2               	movlw	low __pidataBANK0
  2005  0017  0084               	movwf	4
  2006  0018  3081               	movlw	(high __pidataBANK0)| (0+128)
  2007  0019  0085               	movwf	5
  2008  001A  3020               	movlw	low __pdataBANK0
  2009  001B  0086               	movwf	6
  2010  001C  3000               	movlw	high __pdataBANK0
  2011  001D  0087               	movwf	7
  2012  001E  300B               	movlw	11
  2013  001F  3182  2200  3180   	fcall	init_ram
  2014                           
  2015                           ; Clear objects allocated to BANK0
  2016  0022  01B5               	clrf	__pbssBANK0& (0+127)
  2017  0023                     end_of_initialization:	
  2018                           ;End of C runtime variable initialization code
  2019                           
  2020  0023                     __end_of__initialization:
  2021  0023  107E               	bcf	int$flags,0	;clear compiler interrupt flag (level 1)
  2022  0024  0020               	movlb	0
  2023  0025  288B               	ljmp	_main	;jump to C main() function
  2024                           
  2025                           	psect	bssBANK0
  2026  0035                     __pbssBANK0:
  2027  0035                     _eusartRxLastError:
  2028  0035                     	ds	1
  2029                           
  2030                           	psect	dataBANK0
  2031  0020                     __pdataBANK0:
  2032  0020                     NRF_TX_Init@F5237:
  2033  0020                     	ds	5
  2034  0025                     NRF_RX_Init@F5234:
  2035  0025                     	ds	5
  2036  002A                     main@F5245:
  2037  002A                     	ds	1
  2038                           
  2039                           	psect	inittext
  2040  0200                     init_ram:
  2041  0200  00FE               	movwf	btemp
  2042  0201                     initloop:
  2043  0201  0012               	moviw fsr0++
  2044  0202  001E               	movwi fsr1++
  2045  0203  0BFE               	decfsz	btemp,f
  2046  0204  2A01               	goto	initloop
  2047  0205  3400               	retlw	0
  2048                           
  2049                           	psect	cstackCOMMON
  2050  0070                     __pcstackCOMMON:
  2051  0070                     ?_PMD_Initialize:
  2052  0070                     ??_PMD_Initialize:	
  2053                           ; 1 bytes @ 0x0
  2054                           
  2055  0070                     ?_SPI1_Initialize:	
  2056                           ; 1 bytes @ 0x0
  2057                           
  2058  0070                     ??_SPI1_Initialize:	
  2059                           ; 1 bytes @ 0x0
  2060                           
  2061  0070                     ?_PIN_MANAGER_Initialize:	
  2062                           ; 1 bytes @ 0x0
  2063                           
  2064  0070                     ?_OSCILLATOR_Initialize:	
  2065                           ; 1 bytes @ 0x0
  2066                           
  2067  0070                     ??_OSCILLATOR_Initialize:	
  2068                           ; 1 bytes @ 0x0
  2069                           
  2070  0070                     ?_WDT_Initialize:	
  2071                           ; 1 bytes @ 0x0
  2072                           
  2073  0070                     ??_WDT_Initialize:	
  2074                           ; 1 bytes @ 0x0
  2075                           
  2076  0070                     ?_EUSART_Initialize:	
  2077                           ; 1 bytes @ 0x0
  2078                           
  2079  0070                     ?_IOCAF5_SetInterruptHandler:	
  2080                           ; 1 bytes @ 0x0
  2081                           
  2082  0070                     ?_IOCAF5_DefaultInterruptHandler:	
  2083                           ; 1 bytes @ 0x0
  2084                           
  2085  0070                     ??_IOCAF5_DefaultInterruptHandler:	
  2086                           ; 1 bytes @ 0x0
  2087                           
  2088  0070                     ?_IOCAF5_ISR:	
  2089                           ; 1 bytes @ 0x0
  2090                           
  2091  0070                     ??_IOCAF5_ISR:	
  2092                           ; 1 bytes @ 0x0
  2093                           
  2094  0070                     ?_EUSART_SetFramingErrorHandler:	
  2095                           ; 1 bytes @ 0x0
  2096                           
  2097  0070                     ?_EUSART_SetOverrunErrorHandler:	
  2098                           ; 1 bytes @ 0x0
  2099                           
  2100  0070                     ?_EUSART_SetErrorHandler:	
  2101                           ; 1 bytes @ 0x0
  2102                           
  2103  0070                     ?_SYSTEM_Initialize:	
  2104                           ; 1 bytes @ 0x0
  2105                           
  2106  0070                     ?_SPI1_ExchangeByte:	
  2107                           ; 1 bytes @ 0x0
  2108                           
  2109  0070                     ??_SPI1_ExchangeByte:	
  2110                           ; 1 bytes @ 0x0
  2111                           
  2112  0070                     ?_PIN_MANAGER_IOC:	
  2113                           ; 1 bytes @ 0x0
  2114                           
  2115  0070                     ??_PIN_MANAGER_IOC:	
  2116                           ; 1 bytes @ 0x0
  2117                           
  2118  0070                     ?_INTERRUPT_InterruptManager:	
  2119                           ; 1 bytes @ 0x0
  2120                           
  2121  0070                     ??_INTERRUPT_InterruptManager:	
  2122                           ; 1 bytes @ 0x0
  2123                           
  2124  0070                     ?_NRF_SPI:	
  2125                           ; 1 bytes @ 0x0
  2126                           
  2127  0070                     ?_NRF_TX_Init:	
  2128                           ; 1 bytes @ 0x0
  2129                           
  2130  0070                     ?_NRF_FlushTX:	
  2131                           ; 1 bytes @ 0x0
  2132                           
  2133  0070                     ?_main:	
  2134                           ; 1 bytes @ 0x0
  2135                           
  2136  0070                     SPI1_ExchangeByte@data:	
  2137                           ; 1 bytes @ 0x0
  2138                           
  2139  0070                     IOCAF5_SetInterruptHandler@InterruptHandler:	
  2140                           ; 1 bytes @ 0x0
  2141                           
  2142  0070                     EUSART_SetFramingErrorHandler@interruptHandler:	
  2143                           ; 2 bytes @ 0x0
  2144                           
  2145  0070                     EUSART_SetOverrunErrorHandler@interruptHandler:	
  2146                           ; 2 bytes @ 0x0
  2147                           
  2148  0070                     EUSART_SetErrorHandler@interruptHandler:	
  2149                           ; 2 bytes @ 0x0
  2150                           
  2151                           
  2152                           ; 2 bytes @ 0x0
  2153  0070                     	ds	1
  2154  0071                     ??_NRF_SPI:
  2155  0071                     NRF_SPI@data:	
  2156                           ; 1 bytes @ 0x1
  2157                           
  2158                           
  2159                           ; 1 bytes @ 0x1
  2160  0071                     	ds	1
  2161  0072                     ??_PIN_MANAGER_Initialize:
  2162  0072                     ??_EUSART_Initialize:	
  2163                           ; 1 bytes @ 0x2
  2164                           
  2165  0072                     ??_IOCAF5_SetInterruptHandler:	
  2166                           ; 1 bytes @ 0x2
  2167                           
  2168  0072                     ??_EUSART_SetFramingErrorHandler:	
  2169                           ; 1 bytes @ 0x2
  2170                           
  2171  0072                     ??_EUSART_SetOverrunErrorHandler:	
  2172                           ; 1 bytes @ 0x2
  2173                           
  2174  0072                     ??_EUSART_SetErrorHandler:	
  2175                           ; 1 bytes @ 0x2
  2176                           
  2177  0072                     ??_SYSTEM_Initialize:	
  2178                           ; 1 bytes @ 0x2
  2179                           
  2180  0072                     ?_NRF_WriteRegister:	
  2181                           ; 1 bytes @ 0x2
  2182                           
  2183  0072                     ?_NRF_WriteRegisterMulti:	
  2184                           ; 1 bytes @ 0x2
  2185                           
  2186  0072                     ??_NRF_FlushTX:	
  2187                           ; 1 bytes @ 0x2
  2188                           
  2189  0072                     ?_NRF_SendPayload:	
  2190                           ; 1 bytes @ 0x2
  2191                           
  2192  0072                     NRF_WriteRegister@value:	
  2193                           ; 1 bytes @ 0x2
  2194                           
  2195  0072                     NRF_WriteRegisterMulti@data:	
  2196                           ; 1 bytes @ 0x2
  2197                           
  2198  0072                     NRF_SendPayload@len:	
  2199                           ; 1 bytes @ 0x2
  2200                           
  2201                           
  2202                           ; 1 bytes @ 0x2
  2203  0072                     	ds	1
  2204  0073                     ??_NRF_WriteRegister:
  2205  0073                     ??_NRF_SendPayload:	
  2206                           ; 1 bytes @ 0x3
  2207                           
  2208  0073                     NRF_WriteRegister@reg:	
  2209                           ; 1 bytes @ 0x3
  2210                           
  2211  0073                     NRF_WriteRegisterMulti@len:	
  2212                           ; 1 bytes @ 0x3
  2213                           
  2214                           
  2215                           ; 1 bytes @ 0x3
  2216  0073                     	ds	1
  2217  0074                     ??_NRF_WriteRegisterMulti:
  2218  0074                     NRF_SendPayload@data:	
  2219                           ; 1 bytes @ 0x4
  2220                           
  2221                           
  2222                           ; 1 bytes @ 0x4
  2223  0074                     	ds	1
  2224  0075                     NRF_WriteRegisterMulti@reg:
  2225  0075                     NRF_SendPayload@i:	
  2226                           ; 1 bytes @ 0x5
  2227                           
  2228                           
  2229                           ; 1 bytes @ 0x5
  2230  0075                     	ds	1
  2231  0076                     NRF_WriteRegisterMulti@i:
  2232                           
  2233                           ; 1 bytes @ 0x6
  2234  0076                     	ds	1
  2235  0077                     ??_NRF_TX_Init:
  2236                           
  2237                           ; 1 bytes @ 0x7
  2238  0077                     	ds	2
  2239  0079                     NRF_TX_Init@tx_address:
  2240                           
  2241                           ; 5 bytes @ 0x9
  2242  0079                     	ds	5
  2243                           
  2244                           	psect	cstackBANK0
  2245  0033                     __pcstackBANK0:
  2246  0033                     ??_main:
  2247                           
  2248                           ; 1 bytes @ 0x0
  2249  0033                     	ds	1
  2250  0034                     main@data:
  2251                           
  2252                           ; 1 bytes @ 0x1
  2253  0034                     	ds	1
  2254                           
  2255                           	psect	maintext
  2256  008B                     __pmaintext:	
  2257 ;;
  2258 ;;Main: autosize = 0, tempsize = 1, incstack = 0, save=0
  2259 ;;
  2260 ;; *************** function _main *****************
  2261 ;; Defined at:
  2262 ;;		line 142 in file "main.c"
  2263 ;; Parameters:    Size  Location     Type
  2264 ;;		None
  2265 ;; Auto vars:     Size  Location     Type
  2266 ;;  data            1    1[BANK0 ] unsigned char [1]
  2267 ;; Return value:  Size  Location     Type
  2268 ;;                  1    wreg      void 
  2269 ;; Registers used:
  2270 ;;		wreg, fsr0l, fsr0h, fsr1l, fsr1h, status,2, status,0, pclath, cstack
  2271 ;; Tracked objects:
  2272 ;;		On entry : B1F/0
  2273 ;;		On exit  : 0/0
  2274 ;;		Unchanged: 0/0
  2275 ;; Data sizes:     COMMON   BANK0   BANK1   BANK2
  2276 ;;      Params:         0       0       0       0
  2277 ;;      Locals:         0       1       0       0
  2278 ;;      Temps:          0       1       0       0
  2279 ;;      Totals:         0       2       0       0
  2280 ;;Total ram usage:        2 bytes
  2281 ;; Hardware stack levels required when called: 8
  2282 ;; This function calls:
  2283 ;;		_NRF_FlushTX
  2284 ;;		_NRF_SendPayload
  2285 ;;		_NRF_TX_Init
  2286 ;;		_NRF_WriteRegister
  2287 ;;		_SYSTEM_Initialize
  2288 ;; This function is called by:
  2289 ;;		Startup code after reset
  2290 ;; This function uses a non-reentrant model
  2291 ;;
  2292                           
  2293  008B                     _main:	
  2294                           ;psect for function _main
  2295                           
  2296  008B                     l1565:	
  2297                           ;incstack = 0
  2298                           ; Regs used in _main: [wreg-fsr1h+status,2+status,0+pclath+cstack]
  2299                           
  2300                           
  2301                           ;main.c: 143:     SYSTEM_Initialize();
  2302  008B  3181  2193  3180   	fcall	_SYSTEM_Initialize
  2303  008E                     l1567:
  2304                           
  2305                           ;main.c: 146:     TRISAbits.TRISA2 = 0;
  2306  008E  0021               	movlb	1	; select bank1
  2307  008F  110C               	bcf	12,2	;volatile
  2308  0090                     l1569:
  2309                           
  2310                           ;main.c: 149:      TRISCbits.TRISC3=1;
  2311  0090  158E               	bsf	14,3	;volatile
  2312  0091                     l1571:
  2313                           
  2314                           ;main.c: 153:           NRF_TX_Init();
  2315  0091  3180  2026  3180   	fcall	_NRF_TX_Init
  2316  0094                     l1573:
  2317                           
  2318                           ;main.c: 154:            _delay((unsigned long)((100)*(1000000/4000.0)));
  2319  0094  3021               	movlw	33
  2320  0095  0020               	movlb	0	; select bank0
  2321  0096  00B3               	movwf	??_main
  2322  0097  3076               	movlw	118
  2323  0098                     u417:
  2324  0098  0B89               	decfsz	9,f
  2325  0099  2898               	goto	u417
  2326  009A  0BB3               	decfsz	??_main,f
  2327  009B  2898               	goto	u417
  2328  009C  0000               	nop
  2329  009D                     l1575:
  2330                           
  2331                           ;main.c: 171:          if(PORTCbits.RC3 == 1)
  2332  009D  0020               	movlb	0	; select bank0
  2333  009E  1D8E               	btfss	14,3	;volatile
  2334  009F  28A1               	goto	u381
  2335  00A0  28A2               	goto	u380
  2336  00A1                     u381:
  2337  00A1  289D               	goto	l1575
  2338  00A2                     u380:
  2339  00A2                     l1577:
  2340                           
  2341                           ;main.c: 172:         {;main.c: 173:         _delay((unsigned long)((50)*(1000000/4000.0
      +                          )));
  2342  00A2  3011               	movlw	17
  2343  00A3  0020               	movlb	0	; select bank0
  2344  00A4  00B3               	movwf	??_main
  2345  00A5  303A               	movlw	58
  2346  00A6                     u427:
  2347  00A6  0B89               	decfsz	9,f
  2348  00A7  28A6               	goto	u427
  2349  00A8  0BB3               	decfsz	??_main,f
  2350  00A9  28A6               	goto	u427
  2351  00AA  0000               	nop
  2352  00AB                     l1579:
  2353                           
  2354                           ;main.c: 174:         if (PORTCbits.RC3 == 1)
  2355  00AB  0020               	movlb	0	; select bank0
  2356  00AC  1D8E               	btfss	14,3	;volatile
  2357  00AD  28AF               	goto	u391
  2358  00AE  28B0               	goto	u390
  2359  00AF                     u391:
  2360  00AF  289D               	goto	l1575
  2361  00B0                     u390:
  2362  00B0                     l1581:
  2363                           
  2364                           ;main.c: 175:         {;main.c: 176:             uint8_t data[] = {0x44};
  2365  00B0  082A               	movf	main@F5245,w
  2366  00B1  00B3               	movwf	??_main
  2367  00B2  0833               	movf	??_main,w
  2368  00B3  00B4               	movwf	main@data
  2369  00B4                     l1583:
  2370                           
  2371                           ;main.c: 178:             LATCbits.LATC5 = 0;
  2372  00B4  0022               	movlb	2	; select bank2
  2373  00B5  128E               	bcf	14,5	;volatile
  2374  00B6                     l1585:
  2375                           
  2376                           ;main.c: 179:             NRF_FlushTX();
  2377  00B6  3181  21E6  3180   	fcall	_NRF_FlushTX
  2378  00B9                     l1587:
  2379                           
  2380                           ;main.c: 180:             NRF_SendPayload(data, 1);
  2381  00B9  01F2               	clrf	NRF_SendPayload@len
  2382  00BA  0AF2               	incf	NRF_SendPayload@len,f
  2383  00BB  3034               	movlw	(low (main@data| 0))& (0+255)
  2384  00BC  3181  215E  3180   	fcall	_NRF_SendPayload
  2385  00BF                     l1589:
  2386                           
  2387                           ;main.c: 181:             NRF_WriteRegister(0x07, 0x70);
  2388  00BF  3070               	movlw	112
  2389  00C0  0020               	movlb	0	; select bank0
  2390  00C1  00B3               	movwf	??_main
  2391  00C2  0833               	movf	??_main,w
  2392  00C3  00F2               	movwf	NRF_WriteRegister@value
  2393  00C4  3007               	movlw	7
  2394  00C5  3181  21A6  3180   	fcall	_NRF_WriteRegister
  2395  00C8                     l1591:
  2396                           
  2397                           ;main.c: 182:             LATCbits.LATC5 = 1;
  2398  00C8  0022               	movlb	2	; select bank2
  2399  00C9  168E               	bsf	14,5	;volatile
  2400  00CA                     l1593:
  2401                           
  2402                           ;main.c: 183:             _delay((unsigned long)((15)*(1000000/4000.0)));
  2403  00CA  3005               	movlw	5
  2404  00CB  0020               	movlb	0	; select bank0
  2405  00CC  00B3               	movwf	??_main
  2406  00CD  30DD               	movlw	221
  2407  00CE                     u437:
  2408  00CE  0B89               	decfsz	9,f
  2409  00CF  28CE               	goto	u437
  2410  00D0  0BB3               	decfsz	??_main,f
  2411  00D1  28CE               	goto	u437
  2412  00D2  3200               	nop2
  2413  00D3                     l1595:
  2414                           
  2415                           ;main.c: 184:             LATCbits.LATC5 = 0;
  2416  00D3  0022               	movlb	2	; select bank2
  2417  00D4  128E               	bcf	14,5	;volatile
  2418  00D5                     l356:	
  2419                           ;main.c: 187:             while (PORTCbits.RC3 == 1);
  2420                           
  2421  00D5  0020               	movlb	0	; select bank0
  2422  00D6  198E               	btfsc	14,3	;volatile
  2423  00D7  28D9               	goto	u401
  2424  00D8  28DA               	goto	u400
  2425  00D9                     u401:
  2426  00D9  28D5               	goto	l356
  2427  00DA                     u400:
  2428  00DA                     l1597:
  2429                           
  2430                           ;main.c: 188:             _delay((unsigned long)((10)*(1000000/4000.0)));
  2431  00DA  3004               	movlw	4
  2432  00DB  0020               	movlb	0	; select bank0
  2433  00DC  00B3               	movwf	??_main
  2434  00DD  303D               	movlw	61
  2435  00DE                     u447:
  2436  00DE  0B89               	decfsz	9,f
  2437  00DF  28DE               	goto	u447
  2438  00E0  0BB3               	decfsz	??_main,f
  2439  00E1  28DE               	goto	u447
  2440  00E2  3200               	nop2
  2441  00E3  289D               	goto	l1575
  2442  00E4  2815               	ljmp	start
  2443  00E5                     __end_of_main:
  2444                           
  2445                           	psect	text1
  2446  0193                     __ptext1:	
  2447 ;; *************** function _SYSTEM_Initialize *****************
  2448 ;; Defined at:
  2449 ;;		line 50 in file "mcc_generated_files/mcc.c"
  2450 ;; Parameters:    Size  Location     Type
  2451 ;;		None
  2452 ;; Auto vars:     Size  Location     Type
  2453 ;;		None
  2454 ;; Return value:  Size  Location     Type
  2455 ;;                  1    wreg      void 
  2456 ;; Registers used:
  2457 ;;		wreg, status,2, status,0, pclath, cstack
  2458 ;; Tracked objects:
  2459 ;;		On entry : 0/0
  2460 ;;		On exit  : 0/0
  2461 ;;		Unchanged: 0/0
  2462 ;; Data sizes:     COMMON   BANK0   BANK1   BANK2
  2463 ;;      Params:         0       0       0       0
  2464 ;;      Locals:         0       0       0       0
  2465 ;;      Temps:          0       0       0       0
  2466 ;;      Totals:         0       0       0       0
  2467 ;;Total ram usage:        0 bytes
  2468 ;; Hardware stack levels used: 1
  2469 ;; Hardware stack levels required when called: 6
  2470 ;; This function calls:
  2471 ;;		_EUSART_Initialize
  2472 ;;		_OSCILLATOR_Initialize
  2473 ;;		_PIN_MANAGER_Initialize
  2474 ;;		_PMD_Initialize
  2475 ;;		_SPI1_Initialize
  2476 ;;		_WDT_Initialize
  2477 ;; This function is called by:
  2478 ;;		_main
  2479 ;; This function uses a non-reentrant model
  2480 ;;
  2481                           
  2482  0193                     _SYSTEM_Initialize:	
  2483                           ;psect for function _SYSTEM_Initialize
  2484                           
  2485  0193                     l1419:	
  2486                           ;incstack = 0
  2487                           ; Regs used in _SYSTEM_Initialize: [wreg+status,2+status,0+pclath+cstack]
  2488                           
  2489                           
  2490                           ;mcc_generated_files/mcc.c: 53:     PMD_Initialize();
  2491  0193  3181  21F8  3181   	fcall	_PMD_Initialize
  2492  0196                     l1421:
  2493                           
  2494                           ;mcc_generated_files/mcc.c: 54:     SPI1_Initialize();
  2495  0196  3181  217E  3181   	fcall	_SPI1_Initialize
  2496  0199                     l1423:
  2497                           
  2498                           ;mcc_generated_files/mcc.c: 55:     PIN_MANAGER_Initialize();
  2499  0199  3180  20E5  3181   	fcall	_PIN_MANAGER_Initialize
  2500  019C                     l1425:
  2501                           
  2502                           ;mcc_generated_files/mcc.c: 56:     OSCILLATOR_Initialize();
  2503  019C  3181  21DD  3181   	fcall	_OSCILLATOR_Initialize
  2504  019F                     l1427:
  2505                           
  2506                           ;mcc_generated_files/mcc.c: 57:     WDT_Initialize();
  2507  019F  3182  2228  3181   	fcall	_WDT_Initialize
  2508  01A2                     l1429:
  2509                           
  2510                           ;mcc_generated_files/mcc.c: 58:     EUSART_Initialize();
  2511  01A2  3181  2119  3181   	fcall	_EUSART_Initialize
  2512  01A5                     l39:
  2513  01A5  0008               	return
  2514  01A6                     __end_of_SYSTEM_Initialize:
  2515                           
  2516                           	psect	text2
  2517  0228                     __ptext2:	
  2518 ;; *************** function _WDT_Initialize *****************
  2519 ;; Defined at:
  2520 ;;		line 75 in file "mcc_generated_files/mcc.c"
  2521 ;; Parameters:    Size  Location     Type
  2522 ;;		None
  2523 ;; Auto vars:     Size  Location     Type
  2524 ;;		None
  2525 ;; Return value:  Size  Location     Type
  2526 ;;                  1    wreg      void 
  2527 ;; Registers used:
  2528 ;;		wreg
  2529 ;; Tracked objects:
  2530 ;;		On entry : 0/0
  2531 ;;		On exit  : 0/0
  2532 ;;		Unchanged: 0/0
  2533 ;; Data sizes:     COMMON   BANK0   BANK1   BANK2
  2534 ;;      Params:         0       0       0       0
  2535 ;;      Locals:         0       0       0       0
  2536 ;;      Temps:          0       0       0       0
  2537 ;;      Totals:         0       0       0       0
  2538 ;;Total ram usage:        0 bytes
  2539 ;; Hardware stack levels used: 1
  2540 ;; Hardware stack levels required when called: 4
  2541 ;; This function calls:
  2542 ;;		Nothing
  2543 ;; This function is called by:
  2544 ;;		_SYSTEM_Initialize
  2545 ;; This function uses a non-reentrant model
  2546 ;;
  2547                           
  2548  0228                     _WDT_Initialize:	
  2549                           ;psect for function _WDT_Initialize
  2550                           
  2551  0228                     l1383:	
  2552                           ;incstack = 0
  2553                           ; Regs used in _WDT_Initialize: [wreg]
  2554                           
  2555                           
  2556                           ;mcc_generated_files/mcc.c: 78:     WDTCON = 0x16;
  2557  0228  3016               	movlw	22
  2558  0229  0021               	movlb	1	; select bank1
  2559  022A  0097               	movwf	23	;volatile
  2560  022B                     l45:
  2561  022B  0008               	return
  2562  022C                     __end_of_WDT_Initialize:
  2563                           
  2564                           	psect	text3
  2565  017E                     __ptext3:	
  2566 ;; *************** function _SPI1_Initialize *****************
  2567 ;; Defined at:
  2568 ;;		line 62 in file "mcc_generated_files/spi1.c"
  2569 ;; Parameters:    Size  Location     Type
  2570 ;;		None
  2571 ;; Auto vars:     Size  Location     Type
  2572 ;;		None
  2573 ;; Return value:  Size  Location     Type
  2574 ;;                  1    wreg      void 
  2575 ;; Registers used:
  2576 ;;		wreg, status,2
  2577 ;; Tracked objects:
  2578 ;;		On entry : 0/0
  2579 ;;		On exit  : 0/0
  2580 ;;		Unchanged: 0/0
  2581 ;; Data sizes:     COMMON   BANK0   BANK1   BANK2
  2582 ;;      Params:         0       0       0       0
  2583 ;;      Locals:         0       0       0       0
  2584 ;;      Temps:          0       0       0       0
  2585 ;;      Totals:         0       0       0       0
  2586 ;;Total ram usage:        0 bytes
  2587 ;; Hardware stack levels used: 1
  2588 ;; Hardware stack levels required when called: 4
  2589 ;; This function calls:
  2590 ;;		Nothing
  2591 ;; This function is called by:
  2592 ;;		_SYSTEM_Initialize
  2593 ;; This function uses a non-reentrant model
  2594 ;;
  2595                           
  2596  017E                     _SPI1_Initialize:	
  2597                           ;psect for function _SPI1_Initialize
  2598                           
  2599  017E                     l1333:	
  2600                           ;incstack = 0
  2601                           ; Regs used in _SPI1_Initialize: [wreg+status,2]
  2602                           
  2603                           
  2604                           ;mcc_generated_files/spi1.c: 65:     SSP1CLKPPS = 16;
  2605  017E  3010               	movlw	16
  2606  017F  003C               	movlb	28	; select bank28
  2607  0180  00A0               	movwf	32	;volatile
  2608                           
  2609                           ;mcc_generated_files/spi1.c: 66:     SSP1DATPPS = 17;
  2610  0181  3011               	movlw	17
  2611  0182  00A1               	movwf	33	;volatile
  2612                           
  2613                           ;mcc_generated_files/spi1.c: 67:     RC0PPS = 24;
  2614  0183  3018               	movlw	24
  2615  0184  003D               	movlb	29	; select bank29
  2616  0185  00A0               	movwf	32	;volatile
  2617                           
  2618                           ;mcc_generated_files/spi1.c: 68:     RC2PPS = 25;
  2619  0186  3019               	movlw	25
  2620  0187  00A2               	movwf	34	;volatile
  2621                           
  2622                           ;mcc_generated_files/spi1.c: 70:     SSP1STAT = 0xC0;
  2623  0188  30C0               	movlw	192
  2624  0189  0024               	movlb	4	; select bank4
  2625  018A  0094               	movwf	20	;volatile
  2626  018B                     l1335:
  2627                           
  2628                           ;mcc_generated_files/spi1.c: 71:     SSP1CON1 = 0x00;
  2629  018B  0195               	clrf	21	;volatile
  2630  018C                     l1337:
  2631                           
  2632                           ;mcc_generated_files/spi1.c: 72:     SSP1ADD = 0x01;
  2633  018C  3001               	movlw	1
  2634  018D  0092               	movwf	18	;volatile
  2635  018E                     l1339:
  2636                           
  2637                           ;mcc_generated_files/spi1.c: 73:     TRISCbits.TRISC0 = 1;
  2638  018E  0021               	movlb	1	; select bank1
  2639  018F  140E               	bsf	14,0	;volatile
  2640  0190                     l1341:
  2641                           
  2642                           ;mcc_generated_files/spi1.c: 74:     SSP1CON1bits.SSPEN = 1;
  2643  0190  0024               	movlb	4	; select bank4
  2644  0191  1695               	bsf	21,5	;volatile
  2645  0192                     l77:
  2646  0192  0008               	return
  2647  0193                     __end_of_SPI1_Initialize:
  2648                           
  2649                           	psect	text4
  2650  01F8                     __ptext4:	
  2651 ;; *************** function _PMD_Initialize *****************
  2652 ;; Defined at:
  2653 ;;		line 81 in file "mcc_generated_files/mcc.c"
  2654 ;; Parameters:    Size  Location     Type
  2655 ;;		None
  2656 ;; Auto vars:     Size  Location     Type
  2657 ;;		None
  2658 ;; Return value:  Size  Location     Type
  2659 ;;                  1    wreg      void 
  2660 ;; Registers used:
  2661 ;;		status,2
  2662 ;; Tracked objects:
  2663 ;;		On entry : 0/0
  2664 ;;		On exit  : 0/0
  2665 ;;		Unchanged: 0/0
  2666 ;; Data sizes:     COMMON   BANK0   BANK1   BANK2
  2667 ;;      Params:         0       0       0       0
  2668 ;;      Locals:         0       0       0       0
  2669 ;;      Temps:          0       0       0       0
  2670 ;;      Totals:         0       0       0       0
  2671 ;;Total ram usage:        0 bytes
  2672 ;; Hardware stack levels used: 1
  2673 ;; Hardware stack levels required when called: 4
  2674 ;; This function calls:
  2675 ;;		Nothing
  2676 ;; This function is called by:
  2677 ;;		_SYSTEM_Initialize
  2678 ;; This function uses a non-reentrant model
  2679 ;;
  2680                           
  2681  01F8                     _PMD_Initialize:	
  2682                           ;psect for function _PMD_Initialize
  2683                           
  2684  01F8                     l1331:	
  2685                           ;incstack = 0
  2686                           ; Regs used in _PMD_Initialize: [status,2]
  2687                           
  2688                           
  2689                           ;mcc_generated_files/mcc.c: 84:     PMD0 = 0x00;
  2690  01F8  0032               	movlb	18	; select bank18
  2691  01F9  0191               	clrf	17	;volatile
  2692                           
  2693                           ;mcc_generated_files/mcc.c: 86:     PMD1 = 0x00;
  2694  01FA  0192               	clrf	18	;volatile
  2695                           
  2696                           ;mcc_generated_files/mcc.c: 88:     PMD2 = 0x00;
  2697  01FB  0193               	clrf	19	;volatile
  2698                           
  2699                           ;mcc_generated_files/mcc.c: 90:     PMD3 = 0x00;
  2700  01FC  0194               	clrf	20	;volatile
  2701                           
  2702                           ;mcc_generated_files/mcc.c: 92:     PMD4 = 0x00;
  2703  01FD  0195               	clrf	21	;volatile
  2704                           
  2705                           ;mcc_generated_files/mcc.c: 94:     PMD5 = 0x00;
  2706  01FE  0196               	clrf	22	;volatile
  2707  01FF                     l48:
  2708  01FF  0008               	return
  2709  0200                     __end_of_PMD_Initialize:
  2710                           
  2711                           	psect	text5
  2712  00E5                     __ptext5:	
  2713 ;; *************** function _PIN_MANAGER_Initialize *****************
  2714 ;; Defined at:
  2715 ;;		line 57 in file "mcc_generated_files/pin_manager.c"
  2716 ;; Parameters:    Size  Location     Type
  2717 ;;		None
  2718 ;; Auto vars:     Size  Location     Type
  2719 ;;		None
  2720 ;; Return value:  Size  Location     Type
  2721 ;;                  1    wreg      void 
  2722 ;; Registers used:
  2723 ;;		wreg, status,2, status,0, pclath, cstack
  2724 ;; Tracked objects:
  2725 ;;		On entry : 0/0
  2726 ;;		On exit  : 0/0
  2727 ;;		Unchanged: 0/0
  2728 ;; Data sizes:     COMMON   BANK0   BANK1   BANK2
  2729 ;;      Params:         0       0       0       0
  2730 ;;      Locals:         0       0       0       0
  2731 ;;      Temps:          0       0       0       0
  2732 ;;      Totals:         0       0       0       0
  2733 ;;Total ram usage:        0 bytes
  2734 ;; Hardware stack levels used: 1
  2735 ;; Hardware stack levels required when called: 5
  2736 ;; This function calls:
  2737 ;;		_IOCAF5_SetInterruptHandler
  2738 ;; This function is called by:
  2739 ;;		_SYSTEM_Initialize
  2740 ;; This function uses a non-reentrant model
  2741 ;;
  2742                           
  2743  00E5                     _PIN_MANAGER_Initialize:	
  2744                           ;psect for function _PIN_MANAGER_Initialize
  2745                           
  2746  00E5                     l1343:	
  2747                           ;incstack = 0
  2748                           ; Regs used in _PIN_MANAGER_Initialize: [wreg+status,2+status,0+pclath+cstack]
  2749                           
  2750                           
  2751                           ;mcc_generated_files/pin_manager.c: 62:     LATA = 0x00;
  2752  00E5  0022               	movlb	2	; select bank2
  2753  00E6  018C               	clrf	12	;volatile
  2754                           
  2755                           ;mcc_generated_files/pin_manager.c: 63:     LATC = 0x00;
  2756  00E7  018E               	clrf	14	;volatile
  2757  00E8                     l1345:
  2758                           
  2759                           ;mcc_generated_files/pin_manager.c: 68:     TRISA = 0x23;
  2760  00E8  3023               	movlw	35
  2761  00E9  0021               	movlb	1	; select bank1
  2762  00EA  008C               	movwf	12	;volatile
  2763  00EB                     l1347:
  2764                           
  2765                           ;mcc_generated_files/pin_manager.c: 69:     TRISC = 0x0A;
  2766  00EB  300A               	movlw	10
  2767  00EC  008E               	movwf	14	;volatile
  2768                           
  2769                           ;mcc_generated_files/pin_manager.c: 74:     ANSELC = 0x00;
  2770  00ED  0023               	movlb	3	; select bank3
  2771  00EE  018E               	clrf	14	;volatile
  2772                           
  2773                           ;mcc_generated_files/pin_manager.c: 75:     ANSELA = 0x00;
  2774  00EF  018C               	clrf	12	;volatile
  2775                           
  2776                           ;mcc_generated_files/pin_manager.c: 80:     WPUA = 0x00;
  2777  00F0  0024               	movlb	4	; select bank4
  2778  00F1  018C               	clrf	12	;volatile
  2779                           
  2780                           ;mcc_generated_files/pin_manager.c: 81:     WPUC = 0x00;
  2781  00F2  018E               	clrf	14	;volatile
  2782                           
  2783                           ;mcc_generated_files/pin_manager.c: 86:     ODCONA = 0x00;
  2784  00F3  0025               	movlb	5	; select bank5
  2785  00F4  018C               	clrf	12	;volatile
  2786                           
  2787                           ;mcc_generated_files/pin_manager.c: 87:     ODCONC = 0x00;
  2788  00F5  018E               	clrf	14	;volatile
  2789  00F6                     l1349:
  2790                           
  2791                           ;mcc_generated_files/pin_manager.c: 92:     SLRCONA = 0x37;
  2792  00F6  3037               	movlw	55
  2793  00F7  0026               	movlb	6	; select bank6
  2794  00F8  008C               	movwf	12	;volatile
  2795  00F9                     l1351:
  2796                           
  2797                           ;mcc_generated_files/pin_manager.c: 93:     SLRCONC = 0x3F;
  2798  00F9  303F               	movlw	63
  2799  00FA  008E               	movwf	14	;volatile
  2800  00FB                     l1353:
  2801                           
  2802                           ;mcc_generated_files/pin_manager.c: 98:     INLVLA = 0x3F;
  2803  00FB  303F               	movlw	63
  2804  00FC  0027               	movlb	7	; select bank7
  2805  00FD  008C               	movwf	12	;volatile
  2806  00FE                     l1355:
  2807                           
  2808                           ;mcc_generated_files/pin_manager.c: 99:     INLVLC = 0x3F;
  2809  00FE  303F               	movlw	63
  2810  00FF  008E               	movwf	14	;volatile
  2811  0100                     l1357:
  2812                           
  2813                           ;mcc_generated_files/pin_manager.c: 106:     IOCAFbits.IOCAF5 = 0;
  2814  0100  1293               	bcf	19,5	;volatile
  2815  0101                     l1359:
  2816                           
  2817                           ;mcc_generated_files/pin_manager.c: 108:     IOCANbits.IOCAN5 = 1;
  2818  0101  1692               	bsf	18,5	;volatile
  2819  0102                     l1361:
  2820                           
  2821                           ;mcc_generated_files/pin_manager.c: 110:     IOCAPbits.IOCAP5 = 0;
  2822  0102  1291               	bcf	17,5	;volatile
  2823  0103                     l1363:
  2824                           
  2825                           ;mcc_generated_files/pin_manager.c: 115:     IOCAF5_SetInterruptHandler(IOCAF5_DefaultIn
      +                          terruptHandler);
  2826  0103  302C               	movlw	low _IOCAF5_DefaultInterruptHandler
  2827  0104  00F0               	movwf	IOCAF5_SetInterruptHandler@InterruptHandler
  2828  0105  3002               	movlw	high _IOCAF5_DefaultInterruptHandler
  2829  0106  00F1               	movwf	IOCAF5_SetInterruptHandler@InterruptHandler+1
  2830  0107  3182  2206  3180   	fcall	_IOCAF5_SetInterruptHandler
  2831  010A                     l1365:
  2832                           
  2833                           ;mcc_generated_files/pin_manager.c: 118:     PIE0bits.IOCIE = 1;
  2834  010A  0021               	movlb	1	; select bank1
  2835  010B  1610               	bsf	16,4	;volatile
  2836  010C                     l1367:
  2837                           
  2838                           ;mcc_generated_files/pin_manager.c: 121:     RC0PPS = 0x18;
  2839  010C  3018               	movlw	24
  2840  010D  003D               	movlb	29	; select bank29
  2841  010E  00A0               	movwf	32	;volatile
  2842  010F                     l1369:
  2843                           
  2844                           ;mcc_generated_files/pin_manager.c: 122:     SSP1CLKPPS = 0x10;
  2845  010F  3010               	movlw	16
  2846  0110  003C               	movlb	28	; select bank28
  2847  0111  00A0               	movwf	32	;volatile
  2848  0112                     l1371:
  2849                           
  2850                           ;mcc_generated_files/pin_manager.c: 123:     RC2PPS = 0x19;
  2851  0112  3019               	movlw	25
  2852  0113  003D               	movlb	29	; select bank29
  2853  0114  00A2               	movwf	34	;volatile
  2854  0115                     l1373:
  2855                           
  2856                           ;mcc_generated_files/pin_manager.c: 124:     SSP1DATPPS = 0x11;
  2857  0115  3011               	movlw	17
  2858  0116  003C               	movlb	28	; select bank28
  2859  0117  00A1               	movwf	33	;volatile
  2860  0118                     l172:
  2861  0118  0008               	return
  2862  0119                     __end_of_PIN_MANAGER_Initialize:
  2863                           
  2864                           	psect	text6
  2865  0206                     __ptext6:	
  2866 ;; *************** function _IOCAF5_SetInterruptHandler *****************
  2867 ;; Defined at:
  2868 ;;		line 154 in file "mcc_generated_files/pin_manager.c"
  2869 ;; Parameters:    Size  Location     Type
  2870 ;;  InterruptHan    2    0[COMMON] PTR FTN()void 
  2871 ;;		 -> IOCAF5_DefaultInterruptHandler(1), 
  2872 ;; Auto vars:     Size  Location     Type
  2873 ;;		None
  2874 ;; Return value:  Size  Location     Type
  2875 ;;                  1    wreg      void 
  2876 ;; Registers used:
  2877 ;;		wreg
  2878 ;; Tracked objects:
  2879 ;;		On entry : 0/0
  2880 ;;		On exit  : 0/0
  2881 ;;		Unchanged: 0/0
  2882 ;; Data sizes:     COMMON   BANK0   BANK1   BANK2
  2883 ;;      Params:         2       0       0       0
  2884 ;;      Locals:         0       0       0       0
  2885 ;;      Temps:          0       0       0       0
  2886 ;;      Totals:         2       0       0       0
  2887 ;;Total ram usage:        2 bytes
  2888 ;; Hardware stack levels used: 1
  2889 ;; Hardware stack levels required when called: 4
  2890 ;; This function calls:
  2891 ;;		Nothing
  2892 ;; This function is called by:
  2893 ;;		_PIN_MANAGER_Initialize
  2894 ;; This function uses a non-reentrant model
  2895 ;;
  2896                           
  2897  0206                     _IOCAF5_SetInterruptHandler:	
  2898                           ;psect for function _IOCAF5_SetInterruptHandler
  2899                           
  2900  0206                     l1319:	
  2901                           ;incstack = 0
  2902                           ; Regs used in _IOCAF5_SetInterruptHandler: [wreg]
  2903                           
  2904                           
  2905                           ;mcc_generated_files/pin_manager.c: 155:     IOCAF5_InterruptHandler = InterruptHandler;
  2906  0206  0871               	movf	IOCAF5_SetInterruptHandler@InterruptHandler+1,w
  2907  0207  0020               	movlb	0	; select bank0
  2908  0208  00B2               	movwf	_IOCAF5_InterruptHandler+1
  2909  0209  0870               	movf	IOCAF5_SetInterruptHandler@InterruptHandler,w
  2910  020A  00B1               	movwf	_IOCAF5_InterruptHandler
  2911  020B                     l183:
  2912  020B  0008               	return
  2913  020C                     __end_of_IOCAF5_SetInterruptHandler:
  2914                           
  2915                           	psect	text7
  2916  01DD                     __ptext7:	
  2917 ;; *************** function _OSCILLATOR_Initialize *****************
  2918 ;; Defined at:
  2919 ;;		line 61 in file "mcc_generated_files/mcc.c"
  2920 ;; Parameters:    Size  Location     Type
  2921 ;;		None
  2922 ;; Auto vars:     Size  Location     Type
  2923 ;;		None
  2924 ;; Return value:  Size  Location     Type
  2925 ;;                  1    wreg      void 
  2926 ;; Registers used:
  2927 ;;		wreg, status,2
  2928 ;; Tracked objects:
  2929 ;;		On entry : 0/0
  2930 ;;		On exit  : 0/0
  2931 ;;		Unchanged: 0/0
  2932 ;; Data sizes:     COMMON   BANK0   BANK1   BANK2
  2933 ;;      Params:         0       0       0       0
  2934 ;;      Locals:         0       0       0       0
  2935 ;;      Temps:          0       0       0       0
  2936 ;;      Totals:         0       0       0       0
  2937 ;;Total ram usage:        0 bytes
  2938 ;; Hardware stack levels used: 1
  2939 ;; Hardware stack levels required when called: 4
  2940 ;; This function calls:
  2941 ;;		Nothing
  2942 ;; This function is called by:
  2943 ;;		_SYSTEM_Initialize
  2944 ;; This function uses a non-reentrant model
  2945 ;;
  2946                           
  2947  01DD                     _OSCILLATOR_Initialize:	
  2948                           ;psect for function _OSCILLATOR_Initialize
  2949                           
  2950  01DD                     l1375:	
  2951                           ;incstack = 0
  2952                           ; Regs used in _OSCILLATOR_Initialize: [wreg+status,2]
  2953                           
  2954                           
  2955                           ;mcc_generated_files/mcc.c: 64:     OSCCON1 = 0x62;
  2956  01DD  3062               	movlw	98
  2957  01DE  0032               	movlb	18	; select bank18
  2958  01DF  0099               	movwf	25	;volatile
  2959  01E0                     l1377:
  2960                           
  2961                           ;mcc_generated_files/mcc.c: 66:     OSCCON3 = 0x00;
  2962  01E0  019B               	clrf	27	;volatile
  2963  01E1                     l1379:
  2964                           
  2965                           ;mcc_generated_files/mcc.c: 68:     OSCEN = 0x00;
  2966  01E1  019D               	clrf	29	;volatile
  2967                           
  2968                           ;mcc_generated_files/mcc.c: 70:     OSCFRQ = 0x03;
  2969  01E2  3003               	movlw	3
  2970  01E3  009F               	movwf	31	;volatile
  2971  01E4                     l1381:
  2972                           
  2973                           ;mcc_generated_files/mcc.c: 72:     OSCTUNE = 0x00;
  2974  01E4  019E               	clrf	30	;volatile
  2975  01E5                     l42:
  2976  01E5  0008               	return
  2977  01E6                     __end_of_OSCILLATOR_Initialize:
  2978                           
  2979                           	psect	text8
  2980  0119                     __ptext8:	
  2981 ;; *************** function _EUSART_Initialize *****************
  2982 ;; Defined at:
  2983 ;;		line 66 in file "mcc_generated_files/eusart.c"
  2984 ;; Parameters:    Size  Location     Type
  2985 ;;		None
  2986 ;; Auto vars:     Size  Location     Type
  2987 ;;		None
  2988 ;; Return value:  Size  Location     Type
  2989 ;;                  1    wreg      void 
  2990 ;; Registers used:
  2991 ;;		wreg, status,2, status,0, pclath, cstack
  2992 ;; Tracked objects:
  2993 ;;		On entry : 0/0
  2994 ;;		On exit  : 0/0
  2995 ;;		Unchanged: 0/0
  2996 ;; Data sizes:     COMMON   BANK0   BANK1   BANK2
  2997 ;;      Params:         0       0       0       0
  2998 ;;      Locals:         0       0       0       0
  2999 ;;      Temps:          0       0       0       0
  3000 ;;      Totals:         0       0       0       0
  3001 ;;Total ram usage:        0 bytes
  3002 ;; Hardware stack levels used: 1
  3003 ;; Hardware stack levels required when called: 5
  3004 ;; This function calls:
  3005 ;;		_EUSART_SetErrorHandler
  3006 ;;		_EUSART_SetFramingErrorHandler
  3007 ;;		_EUSART_SetOverrunErrorHandler
  3008 ;; This function is called by:
  3009 ;;		_SYSTEM_Initialize
  3010 ;; This function uses a non-reentrant model
  3011 ;;
  3012                           
  3013  0119                     _EUSART_Initialize:	
  3014                           ;psect for function _EUSART_Initialize
  3015                           
  3016  0119                     l1385:	
  3017                           ;incstack = 0
  3018                           ; Regs used in _EUSART_Initialize: [wreg+status,2+status,0+pclath+cstack]
  3019                           
  3020  0119  3008               	movlw	8
  3021  011A  0023               	movlb	3	; select bank3
  3022  011B  009F               	movwf	31	;volatile
  3023  011C  3080               	movlw	128
  3024  011D  009D               	movwf	29	;volatile
  3025  011E  3024               	movlw	36
  3026  011F  009E               	movwf	30	;volatile
  3027  0120  3040               	movlw	64
  3028  0121  009B               	movwf	27	;volatile
  3029  0122  3003               	movlw	3
  3030  0123  009C               	movwf	28	;volatile
  3031  0124                     l1387:
  3032  0124  3000               	movlw	0
  3033  0125  00F0               	movwf	EUSART_SetFramingErrorHandler@interruptHandler
  3034  0126  3000               	movlw	0
  3035  0127  00F1               	movwf	EUSART_SetFramingErrorHandler@interruptHandler+1
  3036  0128  3182  2212  3181   	fcall	_EUSART_SetFramingErrorHandler
  3037  012B                     l1389:
  3038  012B  3000               	movlw	0
  3039  012C  00F0               	movwf	EUSART_SetOverrunErrorHandler@interruptHandler
  3040  012D  3000               	movlw	0
  3041  012E  00F1               	movwf	EUSART_SetOverrunErrorHandler@interruptHandler+1
  3042  012F  3182  220C  3181   	fcall	_EUSART_SetOverrunErrorHandler
  3043  0132                     l1391:
  3044  0132  3000               	movlw	0
  3045  0133  00F0               	movwf	EUSART_SetErrorHandler@interruptHandler
  3046  0134  3000               	movlw	0
  3047  0135  00F1               	movwf	EUSART_SetErrorHandler@interruptHandler+1
  3048  0136  3182  2218  3181   	fcall	_EUSART_SetErrorHandler
  3049  0139                     l1393:
  3050  0139  0020               	movlb	0	; select bank0
  3051  013A  01B5               	clrf	_eusartRxLastError	;volatile
  3052  013B                     l242:
  3053  013B  0008               	return
  3054  013C                     __end_of_EUSART_Initialize:
  3055                           
  3056                           	psect	text9
  3057  020C                     __ptext9:	
  3058 ;; *************** function _EUSART_SetOverrunErrorHandler *****************
  3059 ;; Defined at:
  3060 ;;		line 161 in file "mcc_generated_files/eusart.c"
  3061 ;; Parameters:    Size  Location     Type
  3062 ;;  interruptHan    2    0[COMMON] PTR FTN()void 
  3063 ;;		 -> EUSART_DefaultOverrunErrorHandler(1), 
  3064 ;; Auto vars:     Size  Location     Type
  3065 ;;		None
  3066 ;; Return value:  Size  Location     Type
  3067 ;;                  1    wreg      void 
  3068 ;; Registers used:
  3069 ;;		wreg
  3070 ;; Tracked objects:
  3071 ;;		On entry : 0/0
  3072 ;;		On exit  : 0/0
  3073 ;;		Unchanged: 0/0
  3074 ;; Data sizes:     COMMON   BANK0   BANK1   BANK2
  3075 ;;      Params:         2       0       0       0
  3076 ;;      Locals:         0       0       0       0
  3077 ;;      Temps:          0       0       0       0
  3078 ;;      Totals:         2       0       0       0
  3079 ;;Total ram usage:        2 bytes
  3080 ;; Hardware stack levels used: 1
  3081 ;; Hardware stack levels required when called: 4
  3082 ;; This function calls:
  3083 ;;		Nothing
  3084 ;; This function is called by:
  3085 ;;		_EUSART_Initialize
  3086 ;; This function uses a non-reentrant model
  3087 ;;
  3088                           
  3089  020C                     _EUSART_SetOverrunErrorHandler:	
  3090                           ;psect for function _EUSART_SetOverrunErrorHandler
  3091                           
  3092  020C                     l1323:	
  3093                           ;incstack = 0
  3094                           ; Regs used in _EUSART_SetOverrunErrorHandler: [wreg]
  3095                           
  3096  020C  0871               	movf	EUSART_SetOverrunErrorHandler@interruptHandler+1,w
  3097  020D  0020               	movlb	0	; select bank0
  3098  020E  00AE               	movwf	_EUSART_OverrunErrorHandler+1
  3099  020F  0870               	movf	EUSART_SetOverrunErrorHandler@interruptHandler,w
  3100  0210  00AD               	movwf	_EUSART_OverrunErrorHandler
  3101  0211                     l284:
  3102  0211  0008               	return
  3103  0212                     __end_of_EUSART_SetOverrunErrorHandler:
  3104                           
  3105                           	psect	text10
  3106  0212                     __ptext10:	
  3107 ;; *************** function _EUSART_SetFramingErrorHandler *****************
  3108 ;; Defined at:
  3109 ;;		line 157 in file "mcc_generated_files/eusart.c"
  3110 ;; Parameters:    Size  Location     Type
  3111 ;;  interruptHan    2    0[COMMON] PTR FTN()void 
  3112 ;;		 -> EUSART_DefaultFramingErrorHandler(1), 
  3113 ;; Auto vars:     Size  Location     Type
  3114 ;;		None
  3115 ;; Return value:  Size  Location     Type
  3116 ;;                  1    wreg      void 
  3117 ;; Registers used:
  3118 ;;		wreg
  3119 ;; Tracked objects:
  3120 ;;		On entry : 0/0
  3121 ;;		On exit  : 0/0
  3122 ;;		Unchanged: 0/0
  3123 ;; Data sizes:     COMMON   BANK0   BANK1   BANK2
  3124 ;;      Params:         2       0       0       0
  3125 ;;      Locals:         0       0       0       0
  3126 ;;      Temps:          0       0       0       0
  3127 ;;      Totals:         2       0       0       0
  3128 ;;Total ram usage:        2 bytes
  3129 ;; Hardware stack levels used: 1
  3130 ;; Hardware stack levels required when called: 4
  3131 ;; This function calls:
  3132 ;;		Nothing
  3133 ;; This function is called by:
  3134 ;;		_EUSART_Initialize
  3135 ;; This function uses a non-reentrant model
  3136 ;;
  3137                           
  3138  0212                     _EUSART_SetFramingErrorHandler:	
  3139                           ;psect for function _EUSART_SetFramingErrorHandler
  3140                           
  3141  0212                     l1321:	
  3142                           ;incstack = 0
  3143                           ; Regs used in _EUSART_SetFramingErrorHandler: [wreg]
  3144                           
  3145  0212  0871               	movf	EUSART_SetFramingErrorHandler@interruptHandler+1,w
  3146  0213  0020               	movlb	0	; select bank0
  3147  0214  00B0               	movwf	_EUSART_FramingErrorHandler+1
  3148  0215  0870               	movf	EUSART_SetFramingErrorHandler@interruptHandler,w
  3149  0216  00AF               	movwf	_EUSART_FramingErrorHandler
  3150  0217                     l281:
  3151  0217  0008               	return
  3152  0218                     __end_of_EUSART_SetFramingErrorHandler:
  3153                           
  3154                           	psect	text11
  3155  0218                     __ptext11:	
  3156 ;; *************** function _EUSART_SetErrorHandler *****************
  3157 ;; Defined at:
  3158 ;;		line 165 in file "mcc_generated_files/eusart.c"
  3159 ;; Parameters:    Size  Location     Type
  3160 ;;  interruptHan    2    0[COMMON] PTR FTN()void 
  3161 ;;		 -> EUSART_DefaultErrorHandler(1), 
  3162 ;; Auto vars:     Size  Location     Type
  3163 ;;		None
  3164 ;; Return value:  Size  Location     Type
  3165 ;;                  1    wreg      void 
  3166 ;; Registers used:
  3167 ;;		wreg
  3168 ;; Tracked objects:
  3169 ;;		On entry : 0/0
  3170 ;;		On exit  : 0/0
  3171 ;;		Unchanged: 0/0
  3172 ;; Data sizes:     COMMON   BANK0   BANK1   BANK2
  3173 ;;      Params:         2       0       0       0
  3174 ;;      Locals:         0       0       0       0
  3175 ;;      Temps:          0       0       0       0
  3176 ;;      Totals:         2       0       0       0
  3177 ;;Total ram usage:        2 bytes
  3178 ;; Hardware stack levels used: 1
  3179 ;; Hardware stack levels required when called: 4
  3180 ;; This function calls:
  3181 ;;		Nothing
  3182 ;; This function is called by:
  3183 ;;		_EUSART_Initialize
  3184 ;; This function uses a non-reentrant model
  3185 ;;
  3186                           
  3187  0218                     _EUSART_SetErrorHandler:	
  3188                           ;psect for function _EUSART_SetErrorHandler
  3189                           
  3190  0218                     l1325:	
  3191                           ;incstack = 0
  3192                           ; Regs used in _EUSART_SetErrorHandler: [wreg]
  3193                           
  3194  0218  0871               	movf	EUSART_SetErrorHandler@interruptHandler+1,w
  3195  0219  0020               	movlb	0	; select bank0
  3196  021A  00AC               	movwf	_EUSART_ErrorHandler+1
  3197  021B  0870               	movf	EUSART_SetErrorHandler@interruptHandler,w
  3198  021C  00AB               	movwf	_EUSART_ErrorHandler
  3199  021D                     l287:
  3200  021D  0008               	return
  3201  021E                     __end_of_EUSART_SetErrorHandler:
  3202                           
  3203                           	psect	text12
  3204  0026                     __ptext12:	
  3205 ;; *************** function _NRF_TX_Init *****************
  3206 ;; Defined at:
  3207 ;;		line 100 in file "main.c"
  3208 ;; Parameters:    Size  Location     Type
  3209 ;;		None
  3210 ;; Auto vars:     Size  Location     Type
  3211 ;;  tx_address      5    9[COMMON] unsigned char [5]
  3212 ;; Return value:  Size  Location     Type
  3213 ;;                  1    wreg      void 
  3214 ;; Registers used:
  3215 ;;		wreg, fsr0l, fsr0h, fsr1l, fsr1h, status,2, status,0, pclath, cstack
  3216 ;; Tracked objects:
  3217 ;;		On entry : 0/0
  3218 ;;		On exit  : 0/0
  3219 ;;		Unchanged: 0/0
  3220 ;; Data sizes:     COMMON   BANK0   BANK1   BANK2
  3221 ;;      Params:         0       0       0       0
  3222 ;;      Locals:         5       0       0       0
  3223 ;;      Temps:          2       0       0       0
  3224 ;;      Totals:         7       0       0       0
  3225 ;;Total ram usage:        7 bytes
  3226 ;; Hardware stack levels used: 1
  3227 ;; Hardware stack levels required when called: 7
  3228 ;; This function calls:
  3229 ;;		_NRF_WriteRegister
  3230 ;;		_NRF_WriteRegisterMulti
  3231 ;; This function is called by:
  3232 ;;		_main
  3233 ;; This function uses a non-reentrant model
  3234 ;;
  3235                           
  3236  0026                     _NRF_TX_Init:	
  3237                           ;psect for function _NRF_TX_Init
  3238                           
  3239  0026                     l1437:	
  3240                           ;incstack = 0
  3241                           ; Regs used in _NRF_TX_Init: [wreg-fsr1h+status,2+status,0+pclath+cstack]
  3242                           
  3243                           
  3244                           ;main.c: 101:     _delay((unsigned long)((100)*(1000000/4000.0)));
  3245  0026  3021               	movlw	33
  3246  0027  00F7               	movwf	??_NRF_TX_Init
  3247  0028  3076               	movlw	118
  3248  0029                     u457:
  3249  0029  0B89               	decfsz	9,f
  3250  002A  2829               	goto	u457
  3251  002B  0BF7               	decfsz	??_NRF_TX_Init,f
  3252  002C  2829               	goto	u457
  3253  002D  3200               	nop2
  3254  002E                     l1439:
  3255                           
  3256                           ;main.c: 104:     uint8_t tx_address[5] = {'A', 'A', 'A', 'A', 'A'};
  3257  002E  3020               	movlw	low NRF_TX_Init@F5237
  3258  002F  0086               	movwf	6
  3259  0030  3000               	movlw	high NRF_TX_Init@F5237
  3260  0031  0087               	movwf	7
  3261  0032  3079               	movlw	low NRF_TX_Init@tx_address
  3262  0033  0084               	movwf	4
  3263  0034  3000               	movlw	high NRF_TX_Init@tx_address
  3264  0035  0085               	movwf	5
  3265  0036  3005               	movlw	5
  3266  0037  00F7               	movwf	??_NRF_TX_Init
  3267  0038                     u280:
  3268  0038  0016               	moviw fsr1++
  3269  0039  001A               	movwi fsr0++
  3270  003A  0BF7               	decfsz	??_NRF_TX_Init,f
  3271  003B  2838               	goto	u280
  3272  003C                     l1441:
  3273                           
  3274                           ;main.c: 106:     LATCbits.LATC5 = 0;
  3275  003C  0022               	movlb	2	; select bank2
  3276  003D  128E               	bcf	14,5	;volatile
  3277  003E                     l1443:
  3278                           
  3279                           ;main.c: 108:     NRF_WriteRegister(0x00, 0x0A);
  3280  003E  300A               	movlw	10
  3281  003F  00F7               	movwf	??_NRF_TX_Init
  3282  0040  0877               	movf	??_NRF_TX_Init,w
  3283  0041  00F2               	movwf	NRF_WriteRegister@value
  3284  0042  3000               	movlw	0
  3285  0043  3181  21A6  3180   	fcall	_NRF_WriteRegister
  3286  0046                     l1445:
  3287                           
  3288                           ;main.c: 110:     NRF_WriteRegister((uint8_t)0x04,(uint8_t)0x2A);
  3289  0046  302A               	movlw	42
  3290  0047  00F7               	movwf	??_NRF_TX_Init
  3291  0048  0877               	movf	??_NRF_TX_Init,w
  3292  0049  00F2               	movwf	NRF_WriteRegister@value
  3293  004A  3004               	movlw	4
  3294  004B  3181  21A6  3180   	fcall	_NRF_WriteRegister
  3295  004E                     l1447:
  3296                           
  3297                           ;main.c: 111:     NRF_WriteRegister(0x01, 0X01);
  3298  004E  01F2               	clrf	NRF_WriteRegister@value
  3299  004F  0AF2               	incf	NRF_WriteRegister@value,f
  3300  0050  3001               	movlw	1
  3301  0051  3181  21A6  3180   	fcall	_NRF_WriteRegister
  3302  0054                     l1449:
  3303                           
  3304                           ;main.c: 113:     NRF_WriteRegister(0x05, 0x02);
  3305  0054  3002               	movlw	2
  3306  0055  00F7               	movwf	??_NRF_TX_Init
  3307  0056  0877               	movf	??_NRF_TX_Init,w
  3308  0057  00F2               	movwf	NRF_WriteRegister@value
  3309  0058  3005               	movlw	5
  3310  0059  3181  21A6  3180   	fcall	_NRF_WriteRegister
  3311  005C                     l1451:
  3312                           
  3313                           ;main.c: 116:     NRF_WriteRegister(0x06 ,(uint8_t)6 );
  3314  005C  3006               	movlw	6
  3315  005D  00F7               	movwf	??_NRF_TX_Init
  3316  005E  0877               	movf	??_NRF_TX_Init,w
  3317  005F  00F2               	movwf	NRF_WriteRegister@value
  3318  0060  3006               	movlw	6
  3319  0061  3181  21A6  3180   	fcall	_NRF_WriteRegister
  3320  0064                     l1453:
  3321                           
  3322                           ;main.c: 117:     NRF_WriteRegister(0x03, 0x03);
  3323  0064  3003               	movlw	3
  3324  0065  00F7               	movwf	??_NRF_TX_Init
  3325  0066  0877               	movf	??_NRF_TX_Init,w
  3326  0067  00F2               	movwf	NRF_WriteRegister@value
  3327  0068  3003               	movlw	3
  3328  0069  3181  21A6  3180   	fcall	_NRF_WriteRegister
  3329  006C                     l1455:
  3330                           
  3331                           ;main.c: 119:     NRF_WriteRegisterMulti(0x10, tx_address, 5);
  3332  006C  3079               	movlw	(low (NRF_TX_Init@tx_address| 0))& (0+255)
  3333  006D  00F7               	movwf	??_NRF_TX_Init
  3334  006E  0877               	movf	??_NRF_TX_Init,w
  3335  006F  00F2               	movwf	NRF_WriteRegisterMulti@data
  3336  0070  3005               	movlw	5
  3337  0071  00F8               	movwf	??_NRF_TX_Init+1
  3338  0072  0878               	movf	??_NRF_TX_Init+1,w
  3339  0073  00F3               	movwf	NRF_WriteRegisterMulti@len
  3340  0074  3010               	movlw	16
  3341  0075  3181  213C  3180   	fcall	_NRF_WriteRegisterMulti
  3342  0078                     l1457:
  3343                           
  3344                           ;main.c: 120:     NRF_WriteRegisterMulti(0x0A, tx_address, 5);
  3345  0078  3079               	movlw	(low (NRF_TX_Init@tx_address| 0))& (0+255)
  3346  0079  00F7               	movwf	??_NRF_TX_Init
  3347  007A  0877               	movf	??_NRF_TX_Init,w
  3348  007B  00F2               	movwf	NRF_WriteRegisterMulti@data
  3349  007C  3005               	movlw	5
  3350  007D  00F8               	movwf	??_NRF_TX_Init+1
  3351  007E  0878               	movf	??_NRF_TX_Init+1,w
  3352  007F  00F3               	movwf	NRF_WriteRegisterMulti@len
  3353  0080  300A               	movlw	10
  3354  0081  3181  213C  3180   	fcall	_NRF_WriteRegisterMulti
  3355  0084                     l1459:
  3356                           
  3357                           ;main.c: 122:     LATCbits.LATC5 = 1;
  3358  0084  0022               	movlb	2	; select bank2
  3359  0085  168E               	bsf	14,5	;volatile
  3360  0086                     l1461:
  3361                           
  3362                           ;main.c: 123:     _delay((unsigned long)((2)*(1000000/4000.0)));
  3363  0086  30A6               	movlw	166
  3364  0087                     u467:
  3365  0087  0B89               	decfsz	9,f
  3366  0088  2887               	goto	u467
  3367  0089  3200               	nop2
  3368  008A                     l337:
  3369  008A  0008               	return
  3370  008B                     __end_of_NRF_TX_Init:
  3371                           
  3372                           	psect	text13
  3373  013C                     __ptext13:	
  3374 ;; *************** function _NRF_WriteRegisterMulti *****************
  3375 ;; Defined at:
  3376 ;;		line 42 in file "main.c"
  3377 ;; Parameters:    Size  Location     Type
  3378 ;;  reg             1    wreg     unsigned char 
  3379 ;;  data            1    2[COMMON] PTR unsigned char 
  3380 ;;		 -> NRF_TX_Init@tx_address(5), NRF_RX_Init@rx_address(5), 
  3381 ;;  len             1    3[COMMON] unsigned char 
  3382 ;; Auto vars:     Size  Location     Type
  3383 ;;  reg             1    5[COMMON] unsigned char 
  3384 ;;  i               1    6[COMMON] unsigned char 
  3385 ;; Return value:  Size  Location     Type
  3386 ;;                  1    wreg      void 
  3387 ;; Registers used:
  3388 ;;		wreg, fsr1l, fsr1h, status,2, status,0, pclath, cstack
  3389 ;; Tracked objects:
  3390 ;;		On entry : 0/0
  3391 ;;		On exit  : 0/0
  3392 ;;		Unchanged: 0/0
  3393 ;; Data sizes:     COMMON   BANK0   BANK1   BANK2
  3394 ;;      Params:         2       0       0       0
  3395 ;;      Locals:         2       0       0       0
  3396 ;;      Temps:          1       0       0       0
  3397 ;;      Totals:         5       0       0       0
  3398 ;;Total ram usage:        5 bytes
  3399 ;; Hardware stack levels used: 1
  3400 ;; Hardware stack levels required when called: 6
  3401 ;; This function calls:
  3402 ;;		_NRF_SPI
  3403 ;; This function is called by:
  3404 ;;		_NRF_TX_Init
  3405 ;;		_NRF_RX_Init
  3406 ;; This function uses a non-reentrant model
  3407 ;;
  3408                           
  3409  013C                     _NRF_WriteRegisterMulti:	
  3410                           ;psect for function _NRF_WriteRegisterMulti
  3411                           
  3412                           
  3413                           ;incstack = 0
  3414                           ; Regs used in _NRF_WriteRegisterMulti: [wreg+fsr1l+fsr1h+status,2+status,0+pclath+cstac
      +                          k]
  3415                           ;NRF_WriteRegisterMulti@reg stored from wreg
  3416  013C  00F5               	movwf	NRF_WriteRegisterMulti@reg
  3417  013D                     l1407:
  3418                           
  3419                           ;main.c: 43:     LATAbits.LATA4 = 0;
  3420  013D  0022               	movlb	2	; select bank2
  3421  013E  120C               	bcf	12,4	;volatile
  3422  013F                     l1409:
  3423                           
  3424                           ;main.c: 44:     NRF_SPI(0x20 | (reg & 0x1F));
  3425  013F  0875               	movf	NRF_WriteRegisterMulti@reg,w
  3426  0140  391F               	andlw	31
  3427  0141  3820               	iorlw	32
  3428  0142  3182  221E  3181   	fcall	_NRF_SPI
  3429  0145                     l1411:
  3430                           
  3431                           ;main.c: 45:     for (uint8_t i = 0; i < len; i++)
  3432  0145  01F6               	clrf	NRF_WriteRegisterMulti@i
  3433  0146  2955               	goto	l1417
  3434  0147                     l1413:
  3435                           
  3436                           ;main.c: 46:         NRF_SPI(data[i]);
  3437  0147  0876               	movf	NRF_WriteRegisterMulti@i,w
  3438  0148  0772               	addwf	NRF_WriteRegisterMulti@data,w
  3439  0149  00F4               	movwf	??_NRF_WriteRegisterMulti
  3440  014A  0874               	movf	??_NRF_WriteRegisterMulti,w
  3441  014B  0086               	movwf	6
  3442  014C  0187               	clrf	7
  3443  014D  0801               	movf	1,w
  3444  014E  3182  221E  3181   	fcall	_NRF_SPI
  3445  0151                     l1415:
  3446  0151  3001               	movlw	1
  3447  0152  00F4               	movwf	??_NRF_WriteRegisterMulti
  3448  0153  0874               	movf	??_NRF_WriteRegisterMulti,w
  3449  0154  07F6               	addwf	NRF_WriteRegisterMulti@i,f
  3450  0155                     l1417:
  3451  0155  0873               	movf	NRF_WriteRegisterMulti@len,w
  3452  0156  0276               	subwf	NRF_WriteRegisterMulti@i,w
  3453  0157  1C03               	skipc
  3454  0158  295A               	goto	u261
  3455  0159  295B               	goto	u260
  3456  015A                     u261:
  3457  015A  2947               	goto	l1413
  3458  015B                     u260:
  3459  015B                     l314:
  3460                           
  3461                           ;main.c: 47:     LATAbits.LATA4 = 1;
  3462  015B  0022               	movlb	2	; select bank2
  3463  015C  160C               	bsf	12,4	;volatile
  3464  015D                     l315:
  3465  015D  0008               	return
  3466  015E                     __end_of_NRF_WriteRegisterMulti:
  3467                           
  3468                           	psect	text14
  3469  01A6                     __ptext14:	
  3470 ;; *************** function _NRF_WriteRegister *****************
  3471 ;; Defined at:
  3472 ;;		line 35 in file "main.c"
  3473 ;; Parameters:    Size  Location     Type
  3474 ;;  reg             1    wreg     unsigned char 
  3475 ;;  value           1    2[COMMON] unsigned char 
  3476 ;; Auto vars:     Size  Location     Type
  3477 ;;  reg             1    3[COMMON] unsigned char 
  3478 ;; Return value:  Size  Location     Type
  3479 ;;                  1    wreg      void 
  3480 ;; Registers used:
  3481 ;;		wreg, status,2, status,0, pclath, cstack
  3482 ;; Tracked objects:
  3483 ;;		On entry : 0/0
  3484 ;;		On exit  : 0/0
  3485 ;;		Unchanged: 0/0
  3486 ;; Data sizes:     COMMON   BANK0   BANK1   BANK2
  3487 ;;      Params:         1       0       0       0
  3488 ;;      Locals:         1       0       0       0
  3489 ;;      Temps:          0       0       0       0
  3490 ;;      Totals:         2       0       0       0
  3491 ;;Total ram usage:        2 bytes
  3492 ;; Hardware stack levels used: 1
  3493 ;; Hardware stack levels required when called: 6
  3494 ;; This function calls:
  3495 ;;		_NRF_SPI
  3496 ;; This function is called by:
  3497 ;;		_NRF_TX_Init
  3498 ;;		_main
  3499 ;;		_NRF_ClearStatus
  3500 ;;		_NRF_RX_Init
  3501 ;; This function uses a non-reentrant model
  3502 ;;
  3503                           
  3504  01A6                     _NRF_WriteRegister:	
  3505                           ;psect for function _NRF_WriteRegister
  3506                           
  3507                           
  3508                           ;incstack = 0
  3509                           ; Regs used in _NRF_WriteRegister: [wreg+status,2+status,0+pclath+cstack]
  3510                           ;NRF_WriteRegister@reg stored from wreg
  3511  01A6  00F3               	movwf	NRF_WriteRegister@reg
  3512  01A7                     l1401:
  3513                           
  3514                           ;main.c: 36:     LATAbits.LATA4 = 0;
  3515  01A7  0022               	movlb	2	; select bank2
  3516  01A8  120C               	bcf	12,4	;volatile
  3517  01A9                     l1403:
  3518                           
  3519                           ;main.c: 37:     NRF_SPI(0x20 | (reg & 0x1F));
  3520  01A9  0873               	movf	NRF_WriteRegister@reg,w
  3521  01AA  391F               	andlw	31
  3522  01AB  3820               	iorlw	32
  3523  01AC  3182  221E  3181   	fcall	_NRF_SPI
  3524                           
  3525                           ;main.c: 38:     NRF_SPI(value);
  3526  01AF  0872               	movf	NRF_WriteRegister@value,w
  3527  01B0  3182  221E  3181   	fcall	_NRF_SPI
  3528  01B3                     l1405:
  3529                           
  3530                           ;main.c: 39:     LATAbits.LATA4 = 1;
  3531  01B3  0022               	movlb	2	; select bank2
  3532  01B4  160C               	bsf	12,4	;volatile
  3533  01B5                     l309:
  3534  01B5  0008               	return
  3535  01B6                     __end_of_NRF_WriteRegister:
  3536                           
  3537                           	psect	text15
  3538  015E                     __ptext15:	
  3539 ;; *************** function _NRF_SendPayload *****************
  3540 ;; Defined at:
  3541 ;;		line 134 in file "main.c"
  3542 ;; Parameters:    Size  Location     Type
  3543 ;;  data            1    wreg     PTR unsigned char 
  3544 ;;		 -> main@data(1), 
  3545 ;;  len             1    2[COMMON] unsigned char 
  3546 ;; Auto vars:     Size  Location     Type
  3547 ;;  data            1    4[COMMON] PTR unsigned char 
  3548 ;;		 -> main@data(1), 
  3549 ;;  i               1    5[COMMON] unsigned char 
  3550 ;; Return value:  Size  Location     Type
  3551 ;;                  1    wreg      void 
  3552 ;; Registers used:
  3553 ;;		wreg, fsr1l, fsr1h, status,2, status,0, pclath, cstack
  3554 ;; Tracked objects:
  3555 ;;		On entry : 0/0
  3556 ;;		On exit  : 0/0
  3557 ;;		Unchanged: 0/0
  3558 ;; Data sizes:     COMMON   BANK0   BANK1   BANK2
  3559 ;;      Params:         1       0       0       0
  3560 ;;      Locals:         2       0       0       0
  3561 ;;      Temps:          1       0       0       0
  3562 ;;      Totals:         4       0       0       0
  3563 ;;Total ram usage:        4 bytes
  3564 ;; Hardware stack levels used: 1
  3565 ;; Hardware stack levels required when called: 6
  3566 ;; This function calls:
  3567 ;;		_NRF_SPI
  3568 ;; This function is called by:
  3569 ;;		_main
  3570 ;; This function uses a non-reentrant model
  3571 ;;
  3572                           
  3573  015E                     _NRF_SendPayload:	
  3574                           ;psect for function _NRF_SendPayload
  3575                           
  3576                           
  3577                           ;incstack = 0
  3578                           ; Regs used in _NRF_SendPayload: [wreg+fsr1l+fsr1h+status,2+status,0+pclath+cstack]
  3579                           ;NRF_SendPayload@data stored from wreg
  3580  015E  00F4               	movwf	NRF_SendPayload@data
  3581  015F                     l1469:
  3582                           
  3583                           ;main.c: 135:     LATAbits.LATA4 = 0;
  3584  015F  0022               	movlb	2	; select bank2
  3585  0160  120C               	bcf	12,4	;volatile
  3586  0161                     l1471:
  3587                           
  3588                           ;main.c: 136:     NRF_SPI(0xA0);
  3589  0161  30A0               	movlw	160
  3590  0162  3182  221E  3181   	fcall	_NRF_SPI
  3591  0165                     l1473:
  3592                           
  3593                           ;main.c: 137:     for (uint8_t i = 0; i < len; i++)
  3594  0165  01F5               	clrf	NRF_SendPayload@i
  3595  0166  2975               	goto	l1479
  3596  0167                     l1475:
  3597                           
  3598                           ;main.c: 138:         NRF_SPI(data[i]);
  3599  0167  0875               	movf	NRF_SendPayload@i,w
  3600  0168  0774               	addwf	NRF_SendPayload@data,w
  3601  0169  00F3               	movwf	??_NRF_SendPayload
  3602  016A  0873               	movf	??_NRF_SendPayload,w
  3603  016B  0086               	movwf	6
  3604  016C  0187               	clrf	7
  3605  016D  0801               	movf	1,w
  3606  016E  3182  221E  3181   	fcall	_NRF_SPI
  3607  0171                     l1477:
  3608  0171  3001               	movlw	1
  3609  0172  00F3               	movwf	??_NRF_SendPayload
  3610  0173  0873               	movf	??_NRF_SendPayload,w
  3611  0174  07F5               	addwf	NRF_SendPayload@i,f
  3612  0175                     l1479:
  3613  0175  0872               	movf	NRF_SendPayload@len,w
  3614  0176  0275               	subwf	NRF_SendPayload@i,w
  3615  0177  1C03               	skipc
  3616  0178  297A               	goto	u291
  3617  0179  297B               	goto	u290
  3618  017A                     u291:
  3619  017A  2967               	goto	l1475
  3620  017B                     u290:
  3621  017B                     l345:
  3622                           
  3623                           ;main.c: 139:     LATAbits.LATA4 = 1;
  3624  017B  0022               	movlb	2	; select bank2
  3625  017C  160C               	bsf	12,4	;volatile
  3626  017D                     l346:
  3627  017D  0008               	return
  3628  017E                     __end_of_NRF_SendPayload:
  3629                           
  3630                           	psect	text16
  3631  01E6                     __ptext16:	
  3632 ;; *************** function _NRF_FlushTX *****************
  3633 ;; Defined at:
  3634 ;;		line 127 in file "main.c"
  3635 ;; Parameters:    Size  Location     Type
  3636 ;;		None
  3637 ;; Auto vars:     Size  Location     Type
  3638 ;;		None
  3639 ;; Return value:  Size  Location     Type
  3640 ;;                  1    wreg      void 
  3641 ;; Registers used:
  3642 ;;		wreg, status,2, status,0, pclath, cstack
  3643 ;; Tracked objects:
  3644 ;;		On entry : 0/0
  3645 ;;		On exit  : 0/0
  3646 ;;		Unchanged: 0/0
  3647 ;; Data sizes:     COMMON   BANK0   BANK1   BANK2
  3648 ;;      Params:         0       0       0       0
  3649 ;;      Locals:         0       0       0       0
  3650 ;;      Temps:          0       0       0       0
  3651 ;;      Totals:         0       0       0       0
  3652 ;;Total ram usage:        0 bytes
  3653 ;; Hardware stack levels used: 1
  3654 ;; Hardware stack levels required when called: 6
  3655 ;; This function calls:
  3656 ;;		_NRF_SPI
  3657 ;; This function is called by:
  3658 ;;		_main
  3659 ;; This function uses a non-reentrant model
  3660 ;;
  3661                           
  3662  01E6                     _NRF_FlushTX:	
  3663                           ;psect for function _NRF_FlushTX
  3664                           
  3665  01E6                     l1463:	
  3666                           ;incstack = 0
  3667                           ; Regs used in _NRF_FlushTX: [wreg+status,2+status,0+pclath+cstack]
  3668                           
  3669                           
  3670                           ;main.c: 128:     LATAbits.LATA4 = 0;
  3671  01E6  0022               	movlb	2	; select bank2
  3672  01E7  120C               	bcf	12,4	;volatile
  3673  01E8                     l1465:
  3674                           
  3675                           ;main.c: 129:     NRF_SPI(0xE1);
  3676  01E8  30E1               	movlw	225
  3677  01E9  3182  221E  3181   	fcall	_NRF_SPI
  3678  01EC                     l1467:
  3679                           
  3680                           ;main.c: 130:     LATAbits.LATA4 = 1;
  3681  01EC  0022               	movlb	2	; select bank2
  3682  01ED  160C               	bsf	12,4	;volatile
  3683  01EE                     l340:
  3684  01EE  0008               	return
  3685  01EF                     __end_of_NRF_FlushTX:
  3686                           
  3687                           	psect	text17
  3688  021E                     __ptext17:	
  3689 ;; *************** function _NRF_SPI *****************
  3690 ;; Defined at:
  3691 ;;		line 31 in file "main.c"
  3692 ;; Parameters:    Size  Location     Type
  3693 ;;  data            1    wreg     unsigned char 
  3694 ;; Auto vars:     Size  Location     Type
  3695 ;;  data            1    1[COMMON] unsigned char 
  3696 ;; Return value:  Size  Location     Type
  3697 ;;                  1    wreg      unsigned char 
  3698 ;; Registers used:
  3699 ;;		wreg, pclath, cstack
  3700 ;; Tracked objects:
  3701 ;;		On entry : 0/0
  3702 ;;		On exit  : 0/0
  3703 ;;		Unchanged: 0/0
  3704 ;; Data sizes:     COMMON   BANK0   BANK1   BANK2
  3705 ;;      Params:         0       0       0       0
  3706 ;;      Locals:         1       0       0       0
  3707 ;;      Temps:          0       0       0       0
  3708 ;;      Totals:         1       0       0       0
  3709 ;;Total ram usage:        1 bytes
  3710 ;; Hardware stack levels used: 1
  3711 ;; Hardware stack levels required when called: 5
  3712 ;; This function calls:
  3713 ;;		_SPI1_ExchangeByte
  3714 ;; This function is called by:
  3715 ;;		_NRF_WriteRegister
  3716 ;;		_NRF_WriteRegisterMulti
  3717 ;;		_NRF_FlushTX
  3718 ;;		_NRF_SendPayload
  3719 ;;		_NRF_ReadRegister
  3720 ;;		_NRF_ReadPayload
  3721 ;; This function uses a non-reentrant model
  3722 ;;
  3723                           
  3724  021E                     _NRF_SPI:	
  3725                           ;psect for function _NRF_SPI
  3726                           
  3727                           
  3728                           ;incstack = 0
  3729                           ; Regs used in _NRF_SPI: [wreg+pclath+cstack]
  3730                           ;NRF_SPI@data stored from wreg
  3731  021E  00F1               	movwf	NRF_SPI@data
  3732  021F                     l1327:
  3733                           
  3734                           ;main.c: 32:     return SPI1_ExchangeByte(data);
  3735  021F  0871               	movf	NRF_SPI@data,w
  3736  0220  3181  21C5  3182   	fcall	_SPI1_ExchangeByte
  3737  0223                     l306:
  3738  0223  0008               	return
  3739  0224                     __end_of_NRF_SPI:
  3740                           
  3741                           	psect	text18
  3742  01C5                     __ptext18:	
  3743 ;; *************** function _SPI1_ExchangeByte *****************
  3744 ;; Defined at:
  3745 ;;		line 97 in file "mcc_generated_files/spi1.c"
  3746 ;; Parameters:    Size  Location     Type
  3747 ;;  data            1    wreg     unsigned char 
  3748 ;; Auto vars:     Size  Location     Type
  3749 ;;  data            1    0[COMMON] unsigned char 
  3750 ;; Return value:  Size  Location     Type
  3751 ;;                  1    wreg      unsigned char 
  3752 ;; Registers used:
  3753 ;;		wreg
  3754 ;; Tracked objects:
  3755 ;;		On entry : 0/0
  3756 ;;		On exit  : 0/0
  3757 ;;		Unchanged: 0/0
  3758 ;; Data sizes:     COMMON   BANK0   BANK1   BANK2
  3759 ;;      Params:         0       0       0       0
  3760 ;;      Locals:         1       0       0       0
  3761 ;;      Temps:          0       0       0       0
  3762 ;;      Totals:         1       0       0       0
  3763 ;;Total ram usage:        1 bytes
  3764 ;; Hardware stack levels used: 1
  3765 ;; Hardware stack levels required when called: 4
  3766 ;; This function calls:
  3767 ;;		Nothing
  3768 ;; This function is called by:
  3769 ;;		_NRF_SPI
  3770 ;;		_SPI1_WriteBlock
  3771 ;;		_SPI1_ReadBlock
  3772 ;; This function uses a non-reentrant model
  3773 ;;
  3774                           
  3775  01C5                     _SPI1_ExchangeByte:	
  3776                           ;psect for function _SPI1_ExchangeByte
  3777                           
  3778                           
  3779                           ;incstack = 0
  3780                           ; Regs used in _SPI1_ExchangeByte: [wreg]
  3781                           ;SPI1_ExchangeByte@data stored from wreg
  3782  01C5  00F0               	movwf	SPI1_ExchangeByte@data
  3783  01C6                     l1313:
  3784                           
  3785                           ;mcc_generated_files/spi1.c: 97: uint8_t SPI1_ExchangeByte(uint8_t data);mcc_generated_f
      +                          iles/spi1.c: 98: {;mcc_generated_files/spi1.c: 99:     SSP1BUF = data;
  3786  01C6  0870               	movf	SPI1_ExchangeByte@data,w
  3787  01C7  0024               	movlb	4	; select bank4
  3788  01C8  0091               	movwf	17	;volatile
  3789  01C9                     l87:	
  3790                           ;mcc_generated_files/spi1.c: 100:     while(!PIR1bits.SSP1IF);
  3791                           
  3792  01C9  0020               	movlb	0	; select bank0
  3793  01CA  1D91               	btfss	17,3	;volatile
  3794  01CB  29CD               	goto	u241
  3795  01CC  29CE               	goto	u240
  3796  01CD                     u241:
  3797  01CD  29C9               	goto	l87
  3798  01CE                     u240:
  3799  01CE                     l89:
  3800                           
  3801                           ;mcc_generated_files/spi1.c: 101:     PIR1bits.SSP1IF = 0;
  3802  01CE  1191               	bcf	17,3	;volatile
  3803  01CF                     l1315:
  3804                           
  3805                           ;mcc_generated_files/spi1.c: 102:     return SSP1BUF;
  3806  01CF  0024               	movlb	4	; select bank4
  3807  01D0  0811               	movf	17,w	;volatile
  3808  01D1                     l90:
  3809  01D1  0008               	return
  3810  01D2                     __end_of_SPI1_ExchangeByte:
  3811                           
  3812                           	psect	intentry
  3813  0004                     __pintentry:	
  3814 ;; *************** function _INTERRUPT_InterruptManager *****************
  3815 ;; Defined at:
  3816 ;;		line 52 in file "mcc_generated_files/interrupt_manager.c"
  3817 ;; Parameters:    Size  Location     Type
  3818 ;;		None
  3819 ;; Auto vars:     Size  Location     Type
  3820 ;;		None
  3821 ;; Return value:  Size  Location     Type
  3822 ;;                  1    wreg      void 
  3823 ;; Registers used:
  3824 ;;		wreg, status,2, status,0, pclath, cstack
  3825 ;; Tracked objects:
  3826 ;;		On entry : 0/0
  3827 ;;		On exit  : 0/0
  3828 ;;		Unchanged: 0/0
  3829 ;; Data sizes:     COMMON   BANK0   BANK1   BANK2
  3830 ;;      Params:         0       0       0       0
  3831 ;;      Locals:         0       0       0       0
  3832 ;;      Temps:          0       0       0       0
  3833 ;;      Totals:         0       0       0       0
  3834 ;;Total ram usage:        0 bytes
  3835 ;; Hardware stack levels used: 1
  3836 ;; Hardware stack levels required when called: 3
  3837 ;; This function calls:
  3838 ;;		_PIN_MANAGER_IOC
  3839 ;; This function is called by:
  3840 ;;		Interrupt level 1
  3841 ;; This function uses a non-reentrant model
  3842 ;;
  3843                           
  3844  0004                     _INTERRUPT_InterruptManager:
  3845                           
  3846                           ;incstack = 0
  3847  0004  147E               	bsf	int$flags,0	;set compiler interrupt flag (level 1)
  3848                           
  3849                           ; Regs used in _INTERRUPT_InterruptManager: [wreg+status,2+status,0+pclath+cstack]
  3850  0005  3180               	pagesel	$
  3851  0006                     i1l1497:
  3852                           
  3853                           ;mcc_generated_files/interrupt_manager.c: 55:     if(PIE0bits.IOCIE == 1 && PIR0bits.IOC
      +                          IF == 1)
  3854  0006  0021               	movlb	1	; select bank1
  3855  0007  1E10               	btfss	16,4	;volatile
  3856  0008  280A               	goto	u32_21
  3857  0009  280B               	goto	u32_20
  3858  000A                     u32_21:
  3859  000A  2813               	goto	i1l199
  3860  000B                     u32_20:
  3861  000B                     i1l1499:
  3862  000B  0020               	movlb	0	; select bank0
  3863  000C  1E10               	btfss	16,4	;volatile
  3864  000D  280F               	goto	u33_21
  3865  000E  2810               	goto	u33_20
  3866  000F                     u33_21:
  3867  000F  2813               	goto	i1l199
  3868  0010                     u33_20:
  3869  0010                     i1l1501:
  3870                           
  3871                           ;mcc_generated_files/interrupt_manager.c: 56:     {;mcc_generated_files/interrupt_manage
      +                          r.c: 57:         PIN_MANAGER_IOC();
  3872  0010  3181  21EF  3180   	fcall	_PIN_MANAGER_IOC
  3873  0013                     i1l199:	
  3874                           ;mcc_generated_files/interrupt_manager.c: 58:     }
  3875                           
  3876  0013  107E               	bcf	int$flags,0	;clear compiler interrupt flag (level 1)
  3877  0014  0009               	retfie
  3878  0015                     __end_of_INTERRUPT_InterruptManager:
  3879                           
  3880                           	psect	text20
  3881  01EF                     __ptext20:	
  3882 ;; *************** function _PIN_MANAGER_IOC *****************
  3883 ;; Defined at:
  3884 ;;		line 127 in file "mcc_generated_files/pin_manager.c"
  3885 ;; Parameters:    Size  Location     Type
  3886 ;;		None
  3887 ;; Auto vars:     Size  Location     Type
  3888 ;;		None
  3889 ;; Return value:  Size  Location     Type
  3890 ;;                  1    wreg      void 
  3891 ;; Registers used:
  3892 ;;		wreg, status,2, status,0, pclath, cstack
  3893 ;; Tracked objects:
  3894 ;;		On entry : 0/0
  3895 ;;		On exit  : 0/0
  3896 ;;		Unchanged: 0/0
  3897 ;; Data sizes:     COMMON   BANK0   BANK1   BANK2
  3898 ;;      Params:         0       0       0       0
  3899 ;;      Locals:         0       0       0       0
  3900 ;;      Temps:          0       0       0       0
  3901 ;;      Totals:         0       0       0       0
  3902 ;;Total ram usage:        0 bytes
  3903 ;; Hardware stack levels used: 1
  3904 ;; Hardware stack levels required when called: 2
  3905 ;; This function calls:
  3906 ;;		_IOCAF5_ISR
  3907 ;; This function is called by:
  3908 ;;		_INTERRUPT_InterruptManager
  3909 ;; This function uses a non-reentrant model
  3910 ;;
  3911                           
  3912  01EF                     _PIN_MANAGER_IOC:	
  3913                           ;psect for function _PIN_MANAGER_IOC
  3914                           
  3915  01EF                     i1l1431:	
  3916                           ;incstack = 0
  3917                           ; Regs used in _PIN_MANAGER_IOC: [wreg+status,2+status,0+pclath+cstack]
  3918                           
  3919                           
  3920                           ;mcc_generated_files/pin_manager.c: 130:     if(IOCAFbits.IOCAF5 == 1)
  3921  01EF  0027               	movlb	7	; select bank7
  3922  01F0  1E93               	btfss	19,5	;volatile
  3923  01F1  29F3               	goto	u27_21
  3924  01F2  29F4               	goto	u27_20
  3925  01F3                     u27_21:
  3926  01F3  29F7               	goto	i1l176
  3927  01F4                     u27_20:
  3928  01F4                     i1l1433:
  3929                           
  3930                           ;mcc_generated_files/pin_manager.c: 131:     {;mcc_generated_files/pin_manager.c: 132:  
      +                                 IOCAF5_ISR();
  3931  01F4  3181  21B6  3181   	fcall	_IOCAF5_ISR
  3932  01F7                     i1l176:
  3933  01F7  0008               	return
  3934  01F8                     __end_of_PIN_MANAGER_IOC:
  3935                           
  3936                           	psect	text21
  3937  01B6                     __ptext21:	
  3938 ;; *************** function _IOCAF5_ISR *****************
  3939 ;; Defined at:
  3940 ;;		line 139 in file "mcc_generated_files/pin_manager.c"
  3941 ;; Parameters:    Size  Location     Type
  3942 ;;		None
  3943 ;; Auto vars:     Size  Location     Type
  3944 ;;		None
  3945 ;; Return value:  Size  Location     Type
  3946 ;;                  1    wreg      void 
  3947 ;; Registers used:
  3948 ;;		wreg, status,2, status,0, pclath, cstack
  3949 ;; Tracked objects:
  3950 ;;		On entry : 0/0
  3951 ;;		On exit  : 0/0
  3952 ;;		Unchanged: 0/0
  3953 ;; Data sizes:     COMMON   BANK0   BANK1   BANK2
  3954 ;;      Params:         0       0       0       0
  3955 ;;      Locals:         0       0       0       0
  3956 ;;      Temps:          0       0       0       0
  3957 ;;      Totals:         0       0       0       0
  3958 ;;Total ram usage:        0 bytes
  3959 ;; Hardware stack levels used: 1
  3960 ;; Hardware stack levels required when called: 1
  3961 ;; This function calls:
  3962 ;;		Absolute function
  3963 ;;		_IOCAF5_DefaultInterruptHandler
  3964 ;; This function is called by:
  3965 ;;		_PIN_MANAGER_IOC
  3966 ;; This function uses a non-reentrant model
  3967 ;;
  3968                           
  3969  01B6                     _IOCAF5_ISR:	
  3970                           ;psect for function _IOCAF5_ISR
  3971                           
  3972  01B6                     i1l1395:	
  3973                           ;incstack = 0
  3974                           ; Regs used in _IOCAF5_ISR: [wreg+status,2+status,0+pclath+cstack]
  3975                           
  3976                           
  3977                           ;mcc_generated_files/pin_manager.c: 144:     if(IOCAF5_InterruptHandler)
  3978  01B6  0020               	movlb	0	; select bank0
  3979  01B7  0831               	movf	_IOCAF5_InterruptHandler,w
  3980  01B8  0432               	iorwf	_IOCAF5_InterruptHandler+1,w
  3981  01B9  1903               	btfsc	3,2
  3982  01BA  29BC               	goto	u25_21
  3983  01BB  29BD               	goto	u25_20
  3984  01BC                     u25_21:
  3985  01BC  29C2               	goto	i1l1399
  3986  01BD                     u25_20:
  3987  01BD                     i1l1397:
  3988                           
  3989                           ;mcc_generated_files/pin_manager.c: 145:     {;mcc_generated_files/pin_manager.c: 146:  
      +                                 IOCAF5_InterruptHandler();
  3990  01BD  0832               	movf	_IOCAF5_InterruptHandler+1,w
  3991  01BE  008A               	movwf	10
  3992  01BF  0831               	movf	_IOCAF5_InterruptHandler,w
  3993  01C0  000A               	callw
  3994  01C1  3181               	pagesel	$
  3995  01C2                     i1l1399:
  3996                           
  3997                           ;mcc_generated_files/pin_manager.c: 148:     IOCAFbits.IOCAF5 = 0;
  3998  01C2  0027               	movlb	7	; select bank7
  3999  01C3  1293               	bcf	19,5	;volatile
  4000  01C4                     i1l180:
  4001  01C4  0008               	return
  4002  01C5                     __end_of_IOCAF5_ISR:
  4003                           
  4004                           	psect	text22
  4005  022C                     __ptext22:	
  4006 ;; *************** function _IOCAF5_DefaultInterruptHandler *****************
  4007 ;; Defined at:
  4008 ;;		line 161 in file "mcc_generated_files/pin_manager.c"
  4009 ;; Parameters:    Size  Location     Type
  4010 ;;		None
  4011 ;; Auto vars:     Size  Location     Type
  4012 ;;		None
  4013 ;; Return value:  Size  Location     Type
  4014 ;;                  1    wreg      void 
  4015 ;; Registers used:
  4016 ;;		None
  4017 ;; Tracked objects:
  4018 ;;		On entry : 0/0
  4019 ;;		On exit  : 0/0
  4020 ;;		Unchanged: 0/0
  4021 ;; Data sizes:     COMMON   BANK0   BANK1   BANK2
  4022 ;;      Params:         0       0       0       0
  4023 ;;      Locals:         0       0       0       0
  4024 ;;      Temps:          0       0       0       0
  4025 ;;      Totals:         0       0       0       0
  4026 ;;Total ram usage:        0 bytes
  4027 ;; Hardware stack levels used: 1
  4028 ;; This function calls:
  4029 ;;		Nothing
  4030 ;; This function is called by:
  4031 ;;		_PIN_MANAGER_Initialize
  4032 ;;		_IOCAF5_ISR
  4033 ;; This function uses a non-reentrant model
  4034 ;;
  4035                           
  4036  022C                     _IOCAF5_DefaultInterruptHandler:	
  4037                           ;psect for function _IOCAF5_DefaultInterruptHandler
  4038                           
  4039  022C                     i1l186:	
  4040                           ;incstack = 0
  4041                           ; Regs used in _IOCAF5_DefaultInterruptHandler: []
  4042                           
  4043  022C  0008               	return
  4044  022D                     __end_of_IOCAF5_DefaultInterruptHandler:
  4045  007E                     btemp	set	126	;btemp
  4046  007E                     int$flags	set	126
  4047  007E                     wtemp0	set	126
  4048                           
  4049                           	psect	idloc
  4050                           
  4051                           ;Config register IDLOC0 @ 0x8000
  4052                           ;	unspecified, using default values
  4053  8000                     	org	32768
  4054  8000  3FFF               	dw	16383
  4055                           
  4056                           ;Config register IDLOC1 @ 0x8001
  4057                           ;	unspecified, using default values
  4058  8001                     	org	32769
  4059  8001  3FFF               	dw	16383
  4060                           
  4061                           ;Config register IDLOC2 @ 0x8002
  4062                           ;	unspecified, using default values
  4063  8002                     	org	32770
  4064  8002  3FFF               	dw	16383
  4065                           
  4066                           ;Config register IDLOC3 @ 0x8003
  4067                           ;	unspecified, using default values
  4068  8003                     	org	32771
  4069  8003  3FFF               	dw	16383
  4070                           
  4071                           	psect	config
  4072                           
  4073                           ;Config register CONFIG1 @ 0x8007
  4074                           ;	FEXTOSC External Oscillator mode Selection bits
  4075                           ;	FEXTOSC = OFF, Oscillator not enabled
  4076                           ;	Power-up default value for COSC bits
  4077                           ;	RSTOSC = HFINT1, HFINTOSC (1MHz)
  4078                           ;	Clock Out Enable bit
  4079                           ;	CLKOUTEN = OFF, CLKOUT function is disabled; I/O or oscillator function on OSC2
  4080                           ;	Clock Switch Enable bit
  4081                           ;	CSWEN = ON, Writing to NOSC and NDIV is allowed
  4082                           ;	Fail-Safe Clock Monitor Enable
  4083                           ;	FCMEN = ON, Fail-Safe Clock Monitor is enabled
  4084  8007                     	org	32775
  4085  8007  3FEC               	dw	16364
  4086                           
  4087                           ;Config register CONFIG2 @ 0x8008
  4088                           ;	Master Clear Enable bit
  4089                           ;	MCLRE = ON, MCLR/VPP pin function is MCLR; Weak pull-up enabled
  4090                           ;	Power-up Timer Enable bit
  4091                           ;	PWRTE = OFF, PWRT disabled
  4092                           ;	Watchdog Timer Enable bits
  4093                           ;	WDTE = OFF, WDT disabled; SWDTEN is ignored
  4094                           ;	Low-power BOR enable bit
  4095                           ;	LPBOREN = OFF, ULPBOR disabled
  4096                           ;	Brown-out Reset Enable bits
  4097                           ;	BOREN = ON, Brown-out Reset enabled, SBOREN bit ignored
  4098                           ;	Brown-out Reset Voltage selection bit
  4099                           ;	BORV = LOW, Brown-out voltage (Vbor) set to 2.45V
  4100                           ;	PPSLOCK bit One-Way Set Enable bit
  4101                           ;	PPS1WAY = ON, The PPSLOCK bit can be cleared and set only once; PPS registers remain l
      +                          ocked after one clear/set cycle
  4102                           ;	Stack Overflow/Underflow Reset Enable bit
  4103                           ;	STVREN = ON, Stack Overflow or Underflow will cause a Reset
  4104                           ;	Debugger enable bit
  4105                           ;	DEBUG = OFF, Background debugger disabled
  4106  8008                     	org	32776
  4107  8008  3FF3               	dw	16371
  4108                           
  4109                           ;Config register CONFIG3 @ 0x8009
  4110                           ;	User NVM self-write protection bits
  4111                           ;	WRT = OFF, Write protection off
  4112                           ;	Low Voltage Programming Enable bit
  4113                           ;	LVP = ON, Low Voltage programming enabled. MCLR/VPP pin function is MCLR. MCLRE config
      +                          uration bit is ignored.
  4114  8009                     	org	32777
  4115  8009  3FFF               	dw	16383
  4116                           
  4117                           ;Config register CONFIG4 @ 0x800A
  4118                           ;	User NVM Program Memory Code Protection bit
  4119                           ;	CP = OFF, User NVM code protection disabled
  4120                           ;	Data NVM Memory Code Protection bit
  4121                           ;	CPD = OFF, Data NVM code protection disabled
  4122  800A                     	org	32778
  4123  800A  3FFF               	dw	16383

Data Sizes:
    Strings     0
    Constant    4
    Data        11
    BSS         1
    Persistent  40
    Stack       0

Auto Spaces:
    Space          Size  Autos    Used
    COMMON           14     14      14
    BANK0            80      2      22
    BANK1            80      0       0
    BANK2            80      0       0

Pointer List with Targets:

    NRF_SendPayload@data	PTR unsigned char  size(1) Largest target is 1
		 -> main@data(BANK0[1]), 

    NRF_WriteRegisterMulti@data	PTR unsigned char  size(1) Largest target is 5
		 -> NRF_TX_Init@tx_address(COMMON[5]), NRF_RX_Init@rx_address(COMMON[5]), 

    EUSART_SetErrorHandler@interruptHandler	PTR FTN()void  size(2) Largest target is 1
		 -> EUSART_DefaultErrorHandler(), 

    EUSART_ErrorHandler	PTR FTN()void  size(2) Largest target is 1
		 -> EUSART_DefaultErrorHandler(), Absolute function(), 

    EUSART_SetOverrunErrorHandler@interruptHandler	PTR FTN()void  size(2) Largest target is 1
		 -> EUSART_DefaultOverrunErrorHandler(), 

    EUSART_OverrunErrorHandler	PTR FTN()void  size(2) Largest target is 1
		 -> EUSART_DefaultOverrunErrorHandler(), Absolute function(), 

    EUSART_SetFramingErrorHandler@interruptHandler	PTR FTN()void  size(2) Largest target is 1
		 -> EUSART_DefaultFramingErrorHandler(), 

    EUSART_FramingErrorHandler	PTR FTN()void  size(2) Largest target is 1
		 -> EUSART_DefaultFramingErrorHandler(), Absolute function(), 

    IOCAF5_SetInterruptHandler@InterruptHandler	PTR FTN()void  size(2) Largest target is 1
		 -> IOCAF5_DefaultInterruptHandler(), 

    IOCAF5_InterruptHandler	PTR FTN()void  size(2) Largest target is 1
		 -> Absolute function(), IOCAF5_DefaultInterruptHandler(), 


Critical Paths under _main in COMMON

    _main->_NRF_TX_Init
    _PIN_MANAGER_Initialize->_IOCAF5_SetInterruptHandler
    _EUSART_Initialize->_EUSART_SetErrorHandler
    _EUSART_Initialize->_EUSART_SetFramingErrorHandler
    _EUSART_Initialize->_EUSART_SetOverrunErrorHandler
    _NRF_TX_Init->_NRF_WriteRegisterMulti
    _NRF_WriteRegisterMulti->_NRF_SPI
    _NRF_WriteRegister->_NRF_SPI
    _NRF_SendPayload->_NRF_SPI
    _NRF_FlushTX->_NRF_SPI
    _NRF_SPI->_SPI1_ExchangeByte

Critical Paths under _INTERRUPT_InterruptManager in COMMON

    None.

Critical Paths under _main in BANK0

    None.

Critical Paths under _INTERRUPT_InterruptManager in BANK0

    None.

Critical Paths under _main in BANK1

    None.

Critical Paths under _INTERRUPT_InterruptManager in BANK1

    None.

Critical Paths under _main in BANK2

    None.

Critical Paths under _INTERRUPT_InterruptManager in BANK2

    None.

Call Graph Tables:

 ---------------------------------------------------------------------------------
 (Depth) Function   	        Calls       Base Space   Used Autos Params    Refs
 ---------------------------------------------------------------------------------
 (0) _main                                                 2     2      0    3665
                                              0 BANK0      2     2      0
                        _NRF_FlushTX
                    _NRF_SendPayload
                        _NRF_TX_Init
                  _NRF_WriteRegister
                  _SYSTEM_Initialize
 ---------------------------------------------------------------------------------
 (1) _SYSTEM_Initialize                                    0     0      0     392
                  _EUSART_Initialize
              _OSCILLATOR_Initialize
             _PIN_MANAGER_Initialize
                     _PMD_Initialize
                    _SPI1_Initialize
                     _WDT_Initialize
 ---------------------------------------------------------------------------------
 (2) _WDT_Initialize                                       0     0      0       0
 ---------------------------------------------------------------------------------
 (2) _SPI1_Initialize                                      0     0      0       0
 ---------------------------------------------------------------------------------
 (2) _PMD_Initialize                                       0     0      0       0
 ---------------------------------------------------------------------------------
 (2) _PIN_MANAGER_Initialize                               0     0      0      98
         _IOCAF5_SetInterruptHandler
 ---------------------------------------------------------------------------------
 (3) _IOCAF5_SetInterruptHandler                           2     0      2      98
                                              0 COMMON     2     0      2
 ---------------------------------------------------------------------------------
 (2) _OSCILLATOR_Initialize                                0     0      0       0
 ---------------------------------------------------------------------------------
 (2) _EUSART_Initialize                                    0     0      0     294
             _EUSART_SetErrorHandler
      _EUSART_SetFramingErrorHandler
      _EUSART_SetOverrunErrorHandler
 ---------------------------------------------------------------------------------
 (3) _EUSART_SetOverrunErrorHandler                        2     0      2      98
                                              0 COMMON     2     0      2
 ---------------------------------------------------------------------------------
 (3) _EUSART_SetFramingErrorHandler                        2     0      2      98
                                              0 COMMON     2     0      2
 ---------------------------------------------------------------------------------
 (3) _EUSART_SetErrorHandler                               2     0      2      98
                                              0 COMMON     2     0      2
 ---------------------------------------------------------------------------------
 (1) _NRF_TX_Init                                          7     7      0    1810
                                              7 COMMON     7     7      0
                  _NRF_WriteRegister
             _NRF_WriteRegisterMulti
 ---------------------------------------------------------------------------------
 (2) _NRF_WriteRegisterMulti                               5     3      2     612
                                              2 COMMON     5     3      2
                            _NRF_SPI
 ---------------------------------------------------------------------------------
 (1) _NRF_WriteRegister                                    2     1      1    1152
                                              2 COMMON     2     1      1
                            _NRF_SPI
 ---------------------------------------------------------------------------------
 (1) _NRF_SendPayload                                      4     3      1     243
                                              2 COMMON     4     3      1
                            _NRF_SPI
 ---------------------------------------------------------------------------------
 (1) _NRF_FlushTX                                          0     0      0      44
                            _NRF_SPI
 ---------------------------------------------------------------------------------
 (2) _NRF_SPI                                              1     1      0      44
                                              1 COMMON     1     1      0
                  _SPI1_ExchangeByte
 ---------------------------------------------------------------------------------
 (3) _SPI1_ExchangeByte                                    1     1      0      22
                                              0 COMMON     1     1      0
 ---------------------------------------------------------------------------------
 Estimated maximum stack depth 3
 ---------------------------------------------------------------------------------
 (Depth) Function   	        Calls       Base Space   Used Autos Params    Refs
 ---------------------------------------------------------------------------------
 (5) _INTERRUPT_InterruptManager                           0     0      0       0
                    _PIN_MANAGER_IOC
 ---------------------------------------------------------------------------------
 (6) _PIN_MANAGER_IOC                                      0     0      0       0
                         _IOCAF5_ISR
 ---------------------------------------------------------------------------------
 (7) _IOCAF5_ISR                                           0     0      0       0
                   Absolute function *
     _IOCAF5_DefaultInterruptHandler *
 ---------------------------------------------------------------------------------
 (8) _IOCAF5_DefaultInterruptHandler                       0     0      0       0
 ---------------------------------------------------------------------------------
 (8) Absolute function(Fake)                               0     0      0       0
 ---------------------------------------------------------------------------------
 Estimated maximum stack depth 8
 ---------------------------------------------------------------------------------

 Call Graph Graphs:

 _main (ROOT)
   _NRF_FlushTX
     _NRF_SPI
       _SPI1_ExchangeByte
   _NRF_SendPayload
     _NRF_SPI
   _NRF_TX_Init
     _NRF_WriteRegister
       _NRF_SPI
     _NRF_WriteRegisterMulti
       _NRF_SPI
   _NRF_WriteRegister
   _SYSTEM_Initialize
     _EUSART_Initialize
       _EUSART_SetErrorHandler
       _EUSART_SetFramingErrorHandler
       _EUSART_SetOverrunErrorHandler
     _OSCILLATOR_Initialize
     _PIN_MANAGER_Initialize
       _IOCAF5_SetInterruptHandler
     _PMD_Initialize
     _SPI1_Initialize
     _WDT_Initialize

 _INTERRUPT_InterruptManager (ROOT)
   _PIN_MANAGER_IOC
     _IOCAF5_ISR
       Absolute function(Fake) *
       _IOCAF5_DefaultInterruptHandler *

 Address spaces:
Name               Size   Autos  Total    Cost      Usage
BIGRAM              F0      0       0       0        0.0%
EEDATA             100      0       0       0        0.0%
NULL                 0      0       0       0        0.0%
CODE                 0      0       0       0        0.0%
BITCOMMON            E      0       0       1        0.0%
BITSFR0              0      0       0       1        0.0%
SFR0                 0      0       0       1        0.0%
COMMON               E      E       E       2      100.0%
BITSFR1              0      0       0       2        0.0%
SFR1                 0      0       0       2        0.0%
BITSFR2              0      0       0       3        0.0%
SFR2                 0      0       0       3        0.0%
STACK                0      0       0       3        0.0%
BITSFR3              0      0       0       4        0.0%
SFR3                 0      0       0       4        0.0%
ABS                  0      0      24       4        0.0%
BITBANK0            50      0       0       5        0.0%
BITSFR4              0      0       0       5        0.0%
SFR4                 0      0       0       5        0.0%
BANK0               50      2      16       6       27.5%
BITSFR5              0      0       0       6        0.0%
SFR5                 0      0       0       6        0.0%
BITBANK1            50      0       0       7        0.0%
BITSFR6              0      0       0       7        0.0%
SFR6                 0      0       0       7        0.0%
BANK1               50      0       0       8        0.0%
BITSFR7              0      0       0       8        0.0%
SFR7                 0      0       0       8        0.0%
BITBANK2            50      0       0       9        0.0%
BITSFR8              0      0       0       9        0.0%
SFR8                 0      0       0       9        0.0%
BANK2               50      0       0      10        0.0%
BITSFR9              0      0       0      10        0.0%
SFR9                 0      0       0      10        0.0%
BITSFR10             0      0       0      11        0.0%
SFR10                0      0       0      11        0.0%
DATA                 0      0      24      11        0.0%
BITSFR11             0      0       0      12        0.0%
SFR11                0      0       0      12        0.0%
BITSFR12             0      0       0      13        0.0%
SFR12                0      0       0      13        0.0%
BITSFR13             0      0       0      14        0.0%
SFR13                0      0       0      14        0.0%
BITSFR14             0      0       0      15        0.0%
SFR14                0      0       0      15        0.0%
BITSFR15             0      0       0      16        0.0%
SFR15                0      0       0      16        0.0%
BITSFR16             0      0       0      17        0.0%
SFR16                0      0       0      17        0.0%
BITSFR17             0      0       0      18        0.0%
SFR17                0      0       0      18        0.0%
BITSFR18             0      0       0      19        0.0%
SFR18                0      0       0      19        0.0%
BITSFR19             0      0       0      20        0.0%
SFR19                0      0       0      20        0.0%
BITSFR20             0      0       0      21        0.0%
SFR20                0      0       0      21        0.0%
BITSFR21             0      0       0      22        0.0%
SFR21                0      0       0      22        0.0%
BITSFR22             0      0       0      23        0.0%
SFR22                0      0       0      23        0.0%
BITSFR23             0      0       0      24        0.0%
SFR23                0      0       0      24        0.0%
BITSFR24             0      0       0      25        0.0%
SFR24                0      0       0      25        0.0%
BITSFR25             0      0       0      26        0.0%
SFR25                0      0       0      26        0.0%
BITSFR26             0      0       0      27        0.0%
SFR26                0      0       0      27        0.0%
BITSFR27             0      0       0      28        0.0%
SFR27                0      0       0      28        0.0%
BITSFR28             0      0       0      29        0.0%
SFR28                0      0       0      29        0.0%
BITSFR29             0      0       0      30        0.0%
SFR29                0      0       0      30        0.0%
BITSFR30             0      0       0      31        0.0%
SFR30                0      0       0      31        0.0%
BITSFR31             0      0       0      32        0.0%
SFR31                0      0       0      32        0.0%


Microchip Technology PIC Macro Assembler V2.36 build 20220127204148 
Symbol Table                                                                                   Sat Aug 16 17:42:19 2025

                            _SPI1_ExchangeByte 01C5                                             l42 01E5  
                                           l45 022B                                             l39 01A5  
                                           l48 01FF                                             l90 01D1  
                                           l77 0192                                             l87 01C9  
                                           l89 01CE                             ?_SPI1_ExchangeByte 0070  
                                          l306 0223                                            l314 015B  
                                          l242 013B                                            l315 015D  
                                          l340 01EE                                            l172 0118  
                                          l309 01B5                                            l183 020B  
                                          l345 017B                                            l337 008A  
                                          l281 0217                                            l346 017D  
                                          l284 0211                                            l356 00D5  
                                          l287 021D                                            u240 01CE  
                                          u400 00DA                                            u241 01CD  
                                          u401 00D9                                            u260 015B  
                                          u261 015A                                            u280 0038  
                                          u417 0098                                            u290 017B  
                                          u291 017A                                            u427 00A6  
                                          u380 00A2                                            u437 00CE  
                                          u381 00A1                                            u390 00B0  
                                          u447 00DE                                            u391 00AF  
                                          u457 0029                                            u467 0087  
               ?_EUSART_SetFramingErrorHandler 0070                            ??_SPI1_ExchangeByte 0070  
                                          wreg 0009                               ?_NRF_SendPayload 0072  
           __end_of_IOCAF5_SetInterruptHandler 020C                     _IOCAF5_SetInterruptHandler 0206  
                                         l1313 01C6                                           l1401 01A7  
                                         l1321 0212                                           l1315 01CF  
                                         l1403 01A9                                           l1411 0145  
                                         l1323 020C                                           l1331 01F8  
                                         l1405 01B3                                           l1413 0147  
                                         l1325 0218                                           l1341 0190  
                                         l1333 017E                                           l1421 0196  
                                         l1327 021F                                           l1415 0151  
                                         l1407 013D                                           l1319 0206  
                                         l1351 00F9                                           l1343 00E5  
                                         l1335 018B                                           l1423 0199  
                                         l1417 0155                                           l1409 013F  
                                         l1441 003C                                           l1361 0102  
                                         l1353 00FB                                           l1345 00E8  
                                         l1337 018C                                           l1425 019C  
                                         l1451 005C                                           l1443 003E  
                                         l1371 0112                                           l1363 0103  
                                         l1355 00FE                                           l1347 00EB  
                                         l1339 018E                                           l1427 019F  
                                         l1419 0193                                           l1461 0086  
                                         l1453 0064                                           l1445 0046  
                                         l1437 0026                                           l1381 01E4  
                                         l1373 0115                                           l1365 010A  
                                         l1357 0100                                           l1349 00F6  
                                         l1429 01A2                                           l1463 01E6  
                                         l1471 0161                                           l1455 006C  
                                         l1447 004E                                           l1439 002E  
                                         l1391 0132                                           l1375 01DD  
                                         l1367 010C                                           l1359 0101  
                                         l1383 0228                                           l1465 01E8  
                                         l1473 0165                                           l1457 0078  
                                         l1449 0054                                           l1393 0139  
                                         l1385 0119                                           l1377 01E0  
                                         l1369 010F                                           l1467 01EC  
                                         l1475 0167                                           l1459 0084  
                                         l1387 0124                                           l1379 01E1  
                                         l1571 0091                                           l1477 0171  
                                         l1469 015F                                           l1389 012B  
                                         l1581 00B0                                           l1573 0094  
                                         l1565 008B                                           l1479 0175  
                                         l1591 00C8                                           l1583 00B4  
                                         l1575 009D                                           l1567 008E  
                                         l1593 00CA                                           l1585 00B6  
                                         l1577 00A2                                           l1569 0090  
                                         l1595 00D3                                           l1587 00B9  
                                         l1579 00AB                                           l1597 00DA  
                                         l1589 00BF                                           _LATA 010C  
                                         _LATC 010E                                           _PMD0 0911  
                                         _PMD1 0912                                           _PMD2 0913  
                                         _PMD3 0914                                           _PMD4 0915  
                                         _PMD5 0916                                           _WPUA 020C  
                                         _WPUC 020E                                __end_of_NRF_SPI 0224  
                                         _main 008B                                           fsr0h 0005  
                                         fsr1h 0007                                           fsr0l 0004  
                                         indf1 0001                                           fsr1l 0006  
                                         btemp 007E                                           start 0015  
                    __end_of_SPI1_ExchangeByte 01D2                  __end_of_OSCILLATOR_Initialize 01E6  
                                        ?_main 0070                                          i1l180 01C4  
                                        i1l176 01F7                                          i1l186 022C  
                                        i1l199 0013                                          _OSCEN 091D  
                                        u32_20 000B                                          u32_21 000A  
                                        u25_20 01BD                                          u33_20 0010  
                                        u25_21 01BC                                          u33_21 000F  
                                        u27_20 01F4                                          u27_21 01F3  
                                        _TRISA 008C                                          _TRISC 008E  
                           NRF_SendPayload@len 0072                        __end_of_PIN_MANAGER_IOC 01F8  
                               _WDT_Initialize 0228                                          pclath 000A  
                                        status 0003                                          wtemp0 007E  
                              __initialization 0016                                   __end_of_main 00E5  
                  ?_INTERRUPT_InterruptManager 0070                                         ??_main 0033  
                       __end_of_WDT_Initialize 022C                                      ??_NRF_SPI 0071  
            _EUSART_DefaultFramingErrorHandler 0000                     _EUSART_OverrunErrorHandler 002D  
                         NRF_WriteRegister@reg 0073                                         _ANSELA 018C  
                                       _ANSELC 018E                                   ?_NRF_TX_Init 0070  
                                       _RC1REG 0199                                         _RC0PPS 0EA0  
                                       _RC1STA 019D                                         _RC2PPS 0EA2  
                                       i1l1501 0010                                         i1l1431 01EF  
                                       i1l1433 01F4                                         _ODCONA 028C  
                                       _ODCONC 028E                                         i1l1395 01B6  
                                       i1l1397 01BD                                         i1l1399 01C2  
                                       i1l1497 0006                                         i1l1499 000B  
                                       _INLVLA 038C                                         _INLVLC 038E  
                                       _OSCFRQ 091F                                   ?_NRF_FlushTX 0070  
                                       _TX1REG 019A                                         _WDTCON 0097  
                                       _TX1STA 019E                            NRF_SendPayload@data 0074  
                    NRF_WriteRegisterMulti@len 0073                      NRF_WriteRegisterMulti@reg 0075  
                       _NRF_WriteRegisterMulti 013C                                 _PMD_Initialize 01F8  
                              ?_WDT_Initialize 0070     IOCAF5_SetInterruptHandler@InterruptHandler 0070  
                             ?_PIN_MANAGER_IOC 0070                                   ??_IOCAF5_ISR 0070  
                            _SYSTEM_Initialize 0193                        __end_of__initialization 0023  
                           ?_SYSTEM_Initialize 0070                                 __pcstackCOMMON 0070  
                                 __pidataBANK0 01D2                            ??_SYSTEM_Initialize 0072  
                             NRF_SendPayload@i 0075                              ??_SPI1_Initialize 0070  
                       __end_of_PMD_Initialize 0200                          SPI1_ExchangeByte@data 0070  
                           __end_of_IOCAF5_ISR 01C5                             _spi1_configuration 0224  
                  ?_IOCAF5_SetInterruptHandler 0070                ??_EUSART_SetOverrunErrorHandler 0072  
                    __end_of_SYSTEM_Initialize 01A6                          NRF_TX_Init@tx_address 0079  
                                   __pbssBANK0 0035               ??_IOCAF5_DefaultInterruptHandler 0070  
              ?_IOCAF5_DefaultInterruptHandler 0070                        _IOCAF5_InterruptHandler 0031  
                                   __pmaintext 008B                                     __pintentry 0004  
                              ?_PMD_Initialize 0070                                        _SP1BRGH 019C  
                                      _SP1BRGL 019B                                        _OSCCON1 0919  
                                      _OSCCON3 091B                                    NRF_SPI@data 0071  
                                      _OSCTUNE 091E                                        _NRF_SPI 021E  
                                      _SSP1ADD 0212                                        _SLRCONA 030C  
                                      _SLRCONC 030E                                        _SSP1BUF 0211  
                     ??_EUSART_SetErrorHandler 0072                               NRF_RX_Init@F5234 0025  
                      NRF_WriteRegisterMulti@i 0076                     NRF_WriteRegisterMulti@data 0072  
                                      __ptext1 0193                                        __ptext2 0228  
                                      __ptext3 017E                                        __ptext4 01F8  
                                      __ptext5 00E5                                        __ptext6 0206  
                                      __ptext7 01DD                                        __ptext8 0119  
                                      __ptext9 020C                          _OSCILLATOR_Initialize 01DD  
                     ??_PIN_MANAGER_Initialize 0072                                      _IOCAFbits 0393  
                                    _IOCANbits 0392                                      _IOCAPbits 0391  
                         end_of_initialization 0023          __end_of_EUSART_SetOverrunErrorHandler 0212  
                _EUSART_SetOverrunErrorHandler 020C                                        init_ram 0200  
                                      initloop 0201                              _EUSART_Initialize 0119  
                      ?_NRF_WriteRegisterMulti 0072                             ?_EUSART_Initialize 0070  
                          ??_EUSART_Initialize 0072                               ??_WDT_Initialize 0070  
                                    _PORTCbits 000E                                      _TRISAbits 008C  
                                    _TRISCbits 008E                               NRF_TX_Init@F5237 0020  
                    __end_of_EUSART_Initialize 013C                                _SPI1_Initialize 017E  
               __end_of_NRF_WriteRegisterMulti 015E                              ??_NRF_SendPayload 0073  
                   _EUSART_DefaultErrorHandler 0000                         ?_OSCILLATOR_Initialize 0070  
                          start_initialization 0016                 ?_EUSART_SetOverrunErrorHandler 0070  
                   _EUSART_FramingErrorHandler 002F                               ??_PMD_Initialize 0070  
                       _EUSART_SetErrorHandler 0218                                    __pdataBANK0 0020  
       __end_of_IOCAF5_DefaultInterruptHandler 022D                 _IOCAF5_DefaultInterruptHandler 022C  
                                    ___latbits 0000                                  __pcstackBANK0 0033  
                                     ?_NRF_SPI 0070                        __end_of_SPI1_Initialize 0193  
                                    __pnvBANK0 002B                         _PIN_MANAGER_Initialize 00E5  
                 ??_INTERRUPT_InterruptManager 0070                                       _BAUD1CON 019F  
                       NRF_WriteRegister@value 0072                                  ??_NRF_TX_Init 0077  
                                ??_NRF_FlushTX 0072                                       _LATAbits 010C  
       EUSART_SetErrorHandler@interruptHandler 0070                                       _LATCbits 010E  
                                     _PIE0bits 0090                              _eusartRxLastError 0035  
                                     _PIR0bits 0010                                       _PIR1bits 0011  
              ??_EUSART_SetFramingErrorHandler 0072                                      main@F5245 002A  
                                     _SSP1CON1 0215                                       _SSP1CON2 0216  
            _EUSART_DefaultOverrunErrorHandler 0000                                       _SSP1STAT 0214  
                            ??_PIN_MANAGER_IOC 0070                               ?_SPI1_Initialize 0070  
                              _NRF_SendPayload 015E                            __end_of_NRF_TX_Init 008B  
                          __end_of_NRF_FlushTX 01EF                        ??_OSCILLATOR_Initialize 0070  
                          _EUSART_ErrorHandler 002B                                       __ptext10 0212  
                                     __ptext11 0218                                       __ptext20 01EF  
                                     __ptext12 0026                                       __ptext21 01B6  
                                     __ptext13 013C                                       __ptext22 022C  
                                     __ptext14 01A6                                       __ptext15 015E  
                                     __ptext16 01E6                                       __ptext17 021E  
                                     __ptext18 01C5                   ??_IOCAF5_SetInterruptHandler 0072  
                                 _SSP1CON1bits 0215                                     _IOCAF5_ISR 01B6  
                      ?_EUSART_SetErrorHandler 0070                                     _RC1STAbits 019D  
EUSART_SetOverrunErrorHandler@interruptHandler 0070                                       int$flags 007E  
           __end_of_INTERRUPT_InterruptManager 0015                     _INTERRUPT_InterruptManager 0004  
                                     main@data 0034          __end_of_EUSART_SetFramingErrorHandler 0218  
                _EUSART_SetFramingErrorHandler 0212                        __end_of_NRF_SendPayload 017E  
                                     intlevel1 0000                                    _NRF_TX_Init 0026  
                            _NRF_WriteRegister 01A6                                    _NRF_FlushTX 01E6  
                      ?_PIN_MANAGER_Initialize 0070                             ?_NRF_WriteRegister 0072  
               __end_of_EUSART_SetErrorHandler 021E                            ??_NRF_WriteRegister 0073  
EUSART_SetFramingErrorHandler@interruptHandler 0070                                  __pstringtext1 0224  
                                   _SSP1DATPPS 0E21                                     _SSP1CLKPPS 0E20  
                    __end_of_NRF_WriteRegister 01B6                                     _TX1STAbits 019E  
                     ??_NRF_WriteRegisterMulti 0074                                    ?_IOCAF5_ISR 0070  
               __end_of_PIN_MANAGER_Initialize 0119                                _PIN_MANAGER_IOC 01EF  
                   __end_of_spi1_configuration 0228  
