

Microchip MPLAB XC8 Assembler V2.36 build 20220127204148 
                                                                                               Sat Aug 16 17:36:17 2025

Microchip MPLAB XC8 C Compiler v2.36 (Free license) build 20220127204148 Og1 
     1                           	processor	16F18323
     2                           	pagewidth 120
     3                           	opt	flic
     4                           	psect	idataBANK0,global,class=CODE,delta=2,noexec
     5                           	psect	stringtext1,global,class=STRCODE,delta=2,noexec
     6                           	psect	nvBANK0,global,class=BANK0,space=1,delta=1,noexec
     7                           	psect	cinit,global,class=CODE,merge=1,delta=2
     8                           	psect	dataBANK0,global,class=BANK0,space=1,delta=1,noexec
     9                           	psect	inittext,global,class=CODE,delta=2
    10                           	psect	cstackCOMMON,global,class=COMMON,space=1,delta=1,noexec
    11                           	psect	cstackBANK0,global,class=BANK0,space=1,delta=1,noexec
    12                           	psect	maintext,global,class=CODE,merge=1,split=1,delta=2
    13                           	psect	text1,local,class=CODE,merge=1,delta=2
    14                           	psect	text2,local,class=CODE,merge=1,delta=2
    15                           	psect	text3,local,class=CODE,merge=1,delta=2
    16                           	psect	text4,local,class=CODE,merge=1,delta=2
    17                           	psect	text5,local,class=CODE,merge=1,delta=2
    18                           	psect	text6,local,class=CODE,merge=1,delta=2
    19                           	psect	text7,local,class=CODE,merge=1,delta=2
    20                           	psect	text8,local,class=CODE,merge=1,delta=2
    21                           	psect	text9,local,class=CODE,merge=1,delta=2
    22                           	psect	text10,local,class=CODE,merge=1,delta=2
    23                           	psect	text11,local,class=CODE,merge=1,delta=2
    24                           	psect	text12,local,class=CODE,merge=1,delta=2
    25                           	psect	text13,local,class=CODE,merge=1,delta=2
    26                           	psect	text14,local,class=CODE,merge=1,delta=2
    27                           	psect	text15,local,class=CODE,merge=1,delta=2
    28                           	psect	text16,local,class=CODE,merge=1,delta=2
    29                           	psect	intentry,global,class=CODE,delta=2
    30                           	psect	text18,local,class=CODE,merge=1,delta=2
    31                           	psect	text19,local,class=CODE,merge=1,delta=2
    32                           	psect	text20,local,class=CODE,merge=1,delta=2
    33                           	psect	idloc,global,abs,ovrld,class=IDLOC,space=5,delta=2,noexec
    34                           	psect	config,global,abs,ovrld,class=CONFIG,space=4,delta=2,noexec
    35                           	dabs	1,0x7E,2
    36  0000                     
    37                           ; Version 2.40
    38                           ; Generated 02/12/2021 GMT
    39                           ; 
    40                           ; Copyright © 2021, Microchip Technology Inc. and its subsidiaries ("Microchip")
    41                           ; All rights reserved.
    42                           ; 
    43                           ; This software is developed by Microchip Technology Inc. and its subsidiaries ("Microch
      +                          ip").
    44                           ; 
    45                           ; Redistribution and use in source and binary forms, with or without modification, are
    46                           ; permitted provided that the following conditions are met:
    47                           ; 
    48                           ;     1. Redistributions of source code must retain the above copyright notice, this lis
      +                          t of
    49                           ;        conditions and the following disclaimer.
    50                           ; 
    51                           ;     2. Redistributions in binary form must reproduce the above copyright notice, this 
      +                          list
    52                           ;        of conditions and the following disclaimer in the documentation and/or other
    53                           ;        materials provided with the distribution. Publication is not required when
    54                           ;        this file is used in an embedded application.
    55                           ; 
    56                           ;     3. Microchip's name may not be used to endorse or promote products derived from th
      +                          is
    57                           ;        software without specific prior written permission.
    58                           ; 
    59                           ; THIS SOFTWARE IS PROVIDED BY MICROCHIP "AS IS" AND ANY EXPRESS OR IMPLIED WARRANTIES,
    60                           ; INCLUDING, BUT NOT LIMITED TO, THE IMPLIED WARRANTIES OF MERCHANTABILITY AND FITNESS F
      +                          OR
    61                           ; PURPOSE ARE DISCLAIMED.  IN NO EVENT SHALL MICROCHIP BE LIABLE FOR ANY DIRECT, INDIREC
      +                          T,
    62                           ; INCIDENTAL, SPECIAL, EXEMPLARY, OR CONSEQUENTIAL DAMAGES (INCLUDING BUT NOT LIMITED TO
    63                           ; PROCUREMENT OF SUBSTITUTE GOODS OR SERVICES; LOSS OF USE, DATA OR PROFITS; OR BUSINESS
    64                           ; INTERRUPTION) HOWSOEVER CAUSED AND ON ANY THEORY OF LIABILITY, WHETHER IN CONTRACT, ST
      +                          RICT
    65                           ; LIABILITY, OR TORT (INCLUDING NEGLIGENCE OR OTHERWISE) ARISING IN ANY WAY OUT OF THE U
      +                          SE OF
    66                           ; THIS SOFTWARE, EVEN IF ADVISED OF THE POSSIBILITY OF SUCH DAMAGE.
    67                           ; 
    68                           ; 
    69                           ; Code-generator required, PIC16F18323 Definitions
    70                           ; 
    71                           ; SFR Addresses
    72  0000                     	;# 
    73  0001                     	;# 
    74  0002                     	;# 
    75  0003                     	;# 
    76  0004                     	;# 
    77  0005                     	;# 
    78  0006                     	;# 
    79  0007                     	;# 
    80  0008                     	;# 
    81  0009                     	;# 
    82  000A                     	;# 
    83  000B                     	;# 
    84  000C                     	;# 
    85  000E                     	;# 
    86  0010                     	;# 
    87  0011                     	;# 
    88  0012                     	;# 
    89  0013                     	;# 
    90  0014                     	;# 
    91  0015                     	;# 
    92  0015                     	;# 
    93  0016                     	;# 
    94  0016                     	;# 
    95  0017                     	;# 
    96  0018                     	;# 
    97  0019                     	;# 
    98  0019                     	;# 
    99  001A                     	;# 
   100  001B                     	;# 
   101  001C                     	;# 
   102  001D                     	;# 
   103  001E                     	;# 
   104  001F                     	;# 
   105  008C                     	;# 
   106  008E                     	;# 
   107  0090                     	;# 
   108  0091                     	;# 
   109  0092                     	;# 
   110  0093                     	;# 
   111  0094                     	;# 
   112  0097                     	;# 
   113  009B                     	;# 
   114  009B                     	;# 
   115  009C                     	;# 
   116  009D                     	;# 
   117  009E                     	;# 
   118  009F                     	;# 
   119  010C                     	;# 
   120  010E                     	;# 
   121  0111                     	;# 
   122  0112                     	;# 
   123  0113                     	;# 
   124  0114                     	;# 
   125  0115                     	;# 
   126  0116                     	;# 
   127  0117                     	;# 
   128  0118                     	;# 
   129  0119                     	;# 
   130  018C                     	;# 
   131  018E                     	;# 
   132  0197                     	;# 
   133  0199                     	;# 
   134  0199                     	;# 
   135  0199                     	;# 
   136  019A                     	;# 
   137  019A                     	;# 
   138  019A                     	;# 
   139  019B                     	;# 
   140  019B                     	;# 
   141  019B                     	;# 
   142  019B                     	;# 
   143  019B                     	;# 
   144  019C                     	;# 
   145  019C                     	;# 
   146  019C                     	;# 
   147  019D                     	;# 
   148  019D                     	;# 
   149  019D                     	;# 
   150  019E                     	;# 
   151  019E                     	;# 
   152  019E                     	;# 
   153  019F                     	;# 
   154  019F                     	;# 
   155  019F                     	;# 
   156  019F                     	;# 
   157  019F                     	;# 
   158  020C                     	;# 
   159  020E                     	;# 
   160  0211                     	;# 
   161  0211                     	;# 
   162  0212                     	;# 
   163  0212                     	;# 
   164  0213                     	;# 
   165  0213                     	;# 
   166  0214                     	;# 
   167  0214                     	;# 
   168  0215                     	;# 
   169  0215                     	;# 
   170  0215                     	;# 
   171  0215                     	;# 
   172  0216                     	;# 
   173  0216                     	;# 
   174  0217                     	;# 
   175  0217                     	;# 
   176  028C                     	;# 
   177  028E                     	;# 
   178  0291                     	;# 
   179  0291                     	;# 
   180  0292                     	;# 
   181  0293                     	;# 
   182  0294                     	;# 
   183  0295                     	;# 
   184  0295                     	;# 
   185  0296                     	;# 
   186  0297                     	;# 
   187  0298                     	;# 
   188  030C                     	;# 
   189  030E                     	;# 
   190  038C                     	;# 
   191  038E                     	;# 
   192  0391                     	;# 
   193  0392                     	;# 
   194  0393                     	;# 
   195  0397                     	;# 
   196  0398                     	;# 
   197  0399                     	;# 
   198  039A                     	;# 
   199  039C                     	;# 
   200  039D                     	;# 
   201  039E                     	;# 
   202  039F                     	;# 
   203  0498                     	;# 
   204  0498                     	;# 
   205  0499                     	;# 
   206  049A                     	;# 
   207  049B                     	;# 
   208  049B                     	;# 
   209  049C                     	;# 
   210  049D                     	;# 
   211  049E                     	;# 
   212  049F                     	;# 
   213  0617                     	;# 
   214  0618                     	;# 
   215  0619                     	;# 
   216  0619                     	;# 
   217  061A                     	;# 
   218  061B                     	;# 
   219  061C                     	;# 
   220  061C                     	;# 
   221  0691                     	;# 
   222  0692                     	;# 
   223  0693                     	;# 
   224  0694                     	;# 
   225  0695                     	;# 
   226  0696                     	;# 
   227  0697                     	;# 
   228  0698                     	;# 
   229  0699                     	;# 
   230  0891                     	;# 
   231  0891                     	;# 
   232  0891                     	;# 
   233  0891                     	;# 
   234  0891                     	;# 
   235  0891                     	;# 
   236  0892                     	;# 
   237  0892                     	;# 
   238  0892                     	;# 
   239  0893                     	;# 
   240  0893                     	;# 
   241  0893                     	;# 
   242  0893                     	;# 
   243  0893                     	;# 
   244  0893                     	;# 
   245  0894                     	;# 
   246  0894                     	;# 
   247  0894                     	;# 
   248  0895                     	;# 
   249  0895                     	;# 
   250  0895                     	;# 
   251  0896                     	;# 
   252  0896                     	;# 
   253  0896                     	;# 
   254  089B                     	;# 
   255  0911                     	;# 
   256  0912                     	;# 
   257  0913                     	;# 
   258  0914                     	;# 
   259  0915                     	;# 
   260  0916                     	;# 
   261  0918                     	;# 
   262  0919                     	;# 
   263  091A                     	;# 
   264  091B                     	;# 
   265  091C                     	;# 
   266  091D                     	;# 
   267  091E                     	;# 
   268  091F                     	;# 
   269  0E0F                     	;# 
   270  0E10                     	;# 
   271  0E11                     	;# 
   272  0E12                     	;# 
   273  0E13                     	;# 
   274  0E14                     	;# 
   275  0E15                     	;# 
   276  0E18                     	;# 
   277  0E1A                     	;# 
   278  0E1B                     	;# 
   279  0E1C                     	;# 
   280  0E20                     	;# 
   281  0E21                     	;# 
   282  0E22                     	;# 
   283  0E24                     	;# 
   284  0E25                     	;# 
   285  0E28                     	;# 
   286  0E29                     	;# 
   287  0E2A                     	;# 
   288  0E2B                     	;# 
   289  0E90                     	;# 
   290  0E91                     	;# 
   291  0E92                     	;# 
   292  0E94                     	;# 
   293  0E95                     	;# 
   294  0EA0                     	;# 
   295  0EA1                     	;# 
   296  0EA2                     	;# 
   297  0EA3                     	;# 
   298  0EA4                     	;# 
   299  0EA5                     	;# 
   300  0F0F                     	;# 
   301  0F10                     	;# 
   302  0F11                     	;# 
   303  0F12                     	;# 
   304  0F13                     	;# 
   305  0F14                     	;# 
   306  0F15                     	;# 
   307  0F16                     	;# 
   308  0F17                     	;# 
   309  0F18                     	;# 
   310  0F19                     	;# 
   311  0F1A                     	;# 
   312  0F1B                     	;# 
   313  0F1C                     	;# 
   314  0F1D                     	;# 
   315  0F1E                     	;# 
   316  0F1F                     	;# 
   317  0F20                     	;# 
   318  0F21                     	;# 
   319  0F22                     	;# 
   320  0F23                     	;# 
   321  0FE4                     	;# 
   322  0FE5                     	;# 
   323  0FE6                     	;# 
   324  0FE7                     	;# 
   325  0FE8                     	;# 
   326  0FE9                     	;# 
   327  0FEA                     	;# 
   328  0FEB                     	;# 
   329  0FED                     	;# 
   330  0FEE                     	;# 
   331  0FEF                     	;# 
   332  0000                     	;# 
   333  0001                     	;# 
   334  0002                     	;# 
   335  0003                     	;# 
   336  0004                     	;# 
   337  0005                     	;# 
   338  0006                     	;# 
   339  0007                     	;# 
   340  0008                     	;# 
   341  0009                     	;# 
   342  000A                     	;# 
   343  000B                     	;# 
   344  000C                     	;# 
   345  000E                     	;# 
   346  0010                     	;# 
   347  0011                     	;# 
   348  0012                     	;# 
   349  0013                     	;# 
   350  0014                     	;# 
   351  0015                     	;# 
   352  0015                     	;# 
   353  0016                     	;# 
   354  0016                     	;# 
   355  0017                     	;# 
   356  0018                     	;# 
   357  0019                     	;# 
   358  0019                     	;# 
   359  001A                     	;# 
   360  001B                     	;# 
   361  001C                     	;# 
   362  001D                     	;# 
   363  001E                     	;# 
   364  001F                     	;# 
   365  008C                     	;# 
   366  008E                     	;# 
   367  0090                     	;# 
   368  0091                     	;# 
   369  0092                     	;# 
   370  0093                     	;# 
   371  0094                     	;# 
   372  0097                     	;# 
   373  009B                     	;# 
   374  009B                     	;# 
   375  009C                     	;# 
   376  009D                     	;# 
   377  009E                     	;# 
   378  009F                     	;# 
   379  010C                     	;# 
   380  010E                     	;# 
   381  0111                     	;# 
   382  0112                     	;# 
   383  0113                     	;# 
   384  0114                     	;# 
   385  0115                     	;# 
   386  0116                     	;# 
   387  0117                     	;# 
   388  0118                     	;# 
   389  0119                     	;# 
   390  018C                     	;# 
   391  018E                     	;# 
   392  0197                     	;# 
   393  0199                     	;# 
   394  0199                     	;# 
   395  0199                     	;# 
   396  019A                     	;# 
   397  019A                     	;# 
   398  019A                     	;# 
   399  019B                     	;# 
   400  019B                     	;# 
   401  019B                     	;# 
   402  019B                     	;# 
   403  019B                     	;# 
   404  019C                     	;# 
   405  019C                     	;# 
   406  019C                     	;# 
   407  019D                     	;# 
   408  019D                     	;# 
   409  019D                     	;# 
   410  019E                     	;# 
   411  019E                     	;# 
   412  019E                     	;# 
   413  019F                     	;# 
   414  019F                     	;# 
   415  019F                     	;# 
   416  019F                     	;# 
   417  019F                     	;# 
   418  020C                     	;# 
   419  020E                     	;# 
   420  0211                     	;# 
   421  0211                     	;# 
   422  0212                     	;# 
   423  0212                     	;# 
   424  0213                     	;# 
   425  0213                     	;# 
   426  0214                     	;# 
   427  0214                     	;# 
   428  0215                     	;# 
   429  0215                     	;# 
   430  0215                     	;# 
   431  0215                     	;# 
   432  0216                     	;# 
   433  0216                     	;# 
   434  0217                     	;# 
   435  0217                     	;# 
   436  028C                     	;# 
   437  028E                     	;# 
   438  0291                     	;# 
   439  0291                     	;# 
   440  0292                     	;# 
   441  0293                     	;# 
   442  0294                     	;# 
   443  0295                     	;# 
   444  0295                     	;# 
   445  0296                     	;# 
   446  0297                     	;# 
   447  0298                     	;# 
   448  030C                     	;# 
   449  030E                     	;# 
   450  038C                     	;# 
   451  038E                     	;# 
   452  0391                     	;# 
   453  0392                     	;# 
   454  0393                     	;# 
   455  0397                     	;# 
   456  0398                     	;# 
   457  0399                     	;# 
   458  039A                     	;# 
   459  039C                     	;# 
   460  039D                     	;# 
   461  039E                     	;# 
   462  039F                     	;# 
   463  0498                     	;# 
   464  0498                     	;# 
   465  0499                     	;# 
   466  049A                     	;# 
   467  049B                     	;# 
   468  049B                     	;# 
   469  049C                     	;# 
   470  049D                     	;# 
   471  049E                     	;# 
   472  049F                     	;# 
   473  0617                     	;# 
   474  0618                     	;# 
   475  0619                     	;# 
   476  0619                     	;# 
   477  061A                     	;# 
   478  061B                     	;# 
   479  061C                     	;# 
   480  061C                     	;# 
   481  0691                     	;# 
   482  0692                     	;# 
   483  0693                     	;# 
   484  0694                     	;# 
   485  0695                     	;# 
   486  0696                     	;# 
   487  0697                     	;# 
   488  0698                     	;# 
   489  0699                     	;# 
   490  0891                     	;# 
   491  0891                     	;# 
   492  0891                     	;# 
   493  0891                     	;# 
   494  0891                     	;# 
   495  0891                     	;# 
   496  0892                     	;# 
   497  0892                     	;# 
   498  0892                     	;# 
   499  0893                     	;# 
   500  0893                     	;# 
   501  0893                     	;# 
   502  0893                     	;# 
   503  0893                     	;# 
   504  0893                     	;# 
   505  0894                     	;# 
   506  0894                     	;# 
   507  0894                     	;# 
   508  0895                     	;# 
   509  0895                     	;# 
   510  0895                     	;# 
   511  0896                     	;# 
   512  0896                     	;# 
   513  0896                     	;# 
   514  089B                     	;# 
   515  0911                     	;# 
   516  0912                     	;# 
   517  0913                     	;# 
   518  0914                     	;# 
   519  0915                     	;# 
   520  0916                     	;# 
   521  0918                     	;# 
   522  0919                     	;# 
   523  091A                     	;# 
   524  091B                     	;# 
   525  091C                     	;# 
   526  091D                     	;# 
   527  091E                     	;# 
   528  091F                     	;# 
   529  0E0F                     	;# 
   530  0E10                     	;# 
   531  0E11                     	;# 
   532  0E12                     	;# 
   533  0E13                     	;# 
   534  0E14                     	;# 
   535  0E15                     	;# 
   536  0E18                     	;# 
   537  0E1A                     	;# 
   538  0E1B                     	;# 
   539  0E1C                     	;# 
   540  0E20                     	;# 
   541  0E21                     	;# 
   542  0E22                     	;# 
   543  0E24                     	;# 
   544  0E25                     	;# 
   545  0E28                     	;# 
   546  0E29                     	;# 
   547  0E2A                     	;# 
   548  0E2B                     	;# 
   549  0E90                     	;# 
   550  0E91                     	;# 
   551  0E92                     	;# 
   552  0E94                     	;# 
   553  0E95                     	;# 
   554  0EA0                     	;# 
   555  0EA1                     	;# 
   556  0EA2                     	;# 
   557  0EA3                     	;# 
   558  0EA4                     	;# 
   559  0EA5                     	;# 
   560  0F0F                     	;# 
   561  0F10                     	;# 
   562  0F11                     	;# 
   563  0F12                     	;# 
   564  0F13                     	;# 
   565  0F14                     	;# 
   566  0F15                     	;# 
   567  0F16                     	;# 
   568  0F17                     	;# 
   569  0F18                     	;# 
   570  0F19                     	;# 
   571  0F1A                     	;# 
   572  0F1B                     	;# 
   573  0F1C                     	;# 
   574  0F1D                     	;# 
   575  0F1E                     	;# 
   576  0F1F                     	;# 
   577  0F20                     	;# 
   578  0F21                     	;# 
   579  0F22                     	;# 
   580  0F23                     	;# 
   581  0FE4                     	;# 
   582  0FE5                     	;# 
   583  0FE6                     	;# 
   584  0FE7                     	;# 
   585  0FE8                     	;# 
   586  0FE9                     	;# 
   587  0FEA                     	;# 
   588  0FEB                     	;# 
   589  0FED                     	;# 
   590  0FEE                     	;# 
   591  0FEF                     	;# 
   592  0000                     	;# 
   593  0001                     	;# 
   594  0002                     	;# 
   595  0003                     	;# 
   596  0004                     	;# 
   597  0005                     	;# 
   598  0006                     	;# 
   599  0007                     	;# 
   600  0008                     	;# 
   601  0009                     	;# 
   602  000A                     	;# 
   603  000B                     	;# 
   604  000C                     	;# 
   605  000E                     	;# 
   606  0010                     	;# 
   607  0011                     	;# 
   608  0012                     	;# 
   609  0013                     	;# 
   610  0014                     	;# 
   611  0015                     	;# 
   612  0015                     	;# 
   613  0016                     	;# 
   614  0016                     	;# 
   615  0017                     	;# 
   616  0018                     	;# 
   617  0019                     	;# 
   618  0019                     	;# 
   619  001A                     	;# 
   620  001B                     	;# 
   621  001C                     	;# 
   622  001D                     	;# 
   623  001E                     	;# 
   624  001F                     	;# 
   625  008C                     	;# 
   626  008E                     	;# 
   627  0090                     	;# 
   628  0091                     	;# 
   629  0092                     	;# 
   630  0093                     	;# 
   631  0094                     	;# 
   632  0097                     	;# 
   633  009B                     	;# 
   634  009B                     	;# 
   635  009C                     	;# 
   636  009D                     	;# 
   637  009E                     	;# 
   638  009F                     	;# 
   639  010C                     	;# 
   640  010E                     	;# 
   641  0111                     	;# 
   642  0112                     	;# 
   643  0113                     	;# 
   644  0114                     	;# 
   645  0115                     	;# 
   646  0116                     	;# 
   647  0117                     	;# 
   648  0118                     	;# 
   649  0119                     	;# 
   650  018C                     	;# 
   651  018E                     	;# 
   652  0197                     	;# 
   653  0199                     	;# 
   654  0199                     	;# 
   655  0199                     	;# 
   656  019A                     	;# 
   657  019A                     	;# 
   658  019A                     	;# 
   659  019B                     	;# 
   660  019B                     	;# 
   661  019B                     	;# 
   662  019B                     	;# 
   663  019B                     	;# 
   664  019C                     	;# 
   665  019C                     	;# 
   666  019C                     	;# 
   667  019D                     	;# 
   668  019D                     	;# 
   669  019D                     	;# 
   670  019E                     	;# 
   671  019E                     	;# 
   672  019E                     	;# 
   673  019F                     	;# 
   674  019F                     	;# 
   675  019F                     	;# 
   676  019F                     	;# 
   677  019F                     	;# 
   678  020C                     	;# 
   679  020E                     	;# 
   680  0211                     	;# 
   681  0211                     	;# 
   682  0212                     	;# 
   683  0212                     	;# 
   684  0213                     	;# 
   685  0213                     	;# 
   686  0214                     	;# 
   687  0214                     	;# 
   688  0215                     	;# 
   689  0215                     	;# 
   690  0215                     	;# 
   691  0215                     	;# 
   692  0216                     	;# 
   693  0216                     	;# 
   694  0217                     	;# 
   695  0217                     	;# 
   696  028C                     	;# 
   697  028E                     	;# 
   698  0291                     	;# 
   699  0291                     	;# 
   700  0292                     	;# 
   701  0293                     	;# 
   702  0294                     	;# 
   703  0295                     	;# 
   704  0295                     	;# 
   705  0296                     	;# 
   706  0297                     	;# 
   707  0298                     	;# 
   708  030C                     	;# 
   709  030E                     	;# 
   710  038C                     	;# 
   711  038E                     	;# 
   712  0391                     	;# 
   713  0392                     	;# 
   714  0393                     	;# 
   715  0397                     	;# 
   716  0398                     	;# 
   717  0399                     	;# 
   718  039A                     	;# 
   719  039C                     	;# 
   720  039D                     	;# 
   721  039E                     	;# 
   722  039F                     	;# 
   723  0498                     	;# 
   724  0498                     	;# 
   725  0499                     	;# 
   726  049A                     	;# 
   727  049B                     	;# 
   728  049B                     	;# 
   729  049C                     	;# 
   730  049D                     	;# 
   731  049E                     	;# 
   732  049F                     	;# 
   733  0617                     	;# 
   734  0618                     	;# 
   735  0619                     	;# 
   736  0619                     	;# 
   737  061A                     	;# 
   738  061B                     	;# 
   739  061C                     	;# 
   740  061C                     	;# 
   741  0691                     	;# 
   742  0692                     	;# 
   743  0693                     	;# 
   744  0694                     	;# 
   745  0695                     	;# 
   746  0696                     	;# 
   747  0697                     	;# 
   748  0698                     	;# 
   749  0699                     	;# 
   750  0891                     	;# 
   751  0891                     	;# 
   752  0891                     	;# 
   753  0891                     	;# 
   754  0891                     	;# 
   755  0891                     	;# 
   756  0892                     	;# 
   757  0892                     	;# 
   758  0892                     	;# 
   759  0893                     	;# 
   760  0893                     	;# 
   761  0893                     	;# 
   762  0893                     	;# 
   763  0893                     	;# 
   764  0893                     	;# 
   765  0894                     	;# 
   766  0894                     	;# 
   767  0894                     	;# 
   768  0895                     	;# 
   769  0895                     	;# 
   770  0895                     	;# 
   771  0896                     	;# 
   772  0896                     	;# 
   773  0896                     	;# 
   774  089B                     	;# 
   775  0911                     	;# 
   776  0912                     	;# 
   777  0913                     	;# 
   778  0914                     	;# 
   779  0915                     	;# 
   780  0916                     	;# 
   781  0918                     	;# 
   782  0919                     	;# 
   783  091A                     	;# 
   784  091B                     	;# 
   785  091C                     	;# 
   786  091D                     	;# 
   787  091E                     	;# 
   788  091F                     	;# 
   789  0E0F                     	;# 
   790  0E10                     	;# 
   791  0E11                     	;# 
   792  0E12                     	;# 
   793  0E13                     	;# 
   794  0E14                     	;# 
   795  0E15                     	;# 
   796  0E18                     	;# 
   797  0E1A                     	;# 
   798  0E1B                     	;# 
   799  0E1C                     	;# 
   800  0E20                     	;# 
   801  0E21                     	;# 
   802  0E22                     	;# 
   803  0E24                     	;# 
   804  0E25                     	;# 
   805  0E28                     	;# 
   806  0E29                     	;# 
   807  0E2A                     	;# 
   808  0E2B                     	;# 
   809  0E90                     	;# 
   810  0E91                     	;# 
   811  0E92                     	;# 
   812  0E94                     	;# 
   813  0E95                     	;# 
   814  0EA0                     	;# 
   815  0EA1                     	;# 
   816  0EA2                     	;# 
   817  0EA3                     	;# 
   818  0EA4                     	;# 
   819  0EA5                     	;# 
   820  0F0F                     	;# 
   821  0F10                     	;# 
   822  0F11                     	;# 
   823  0F12                     	;# 
   824  0F13                     	;# 
   825  0F14                     	;# 
   826  0F15                     	;# 
   827  0F16                     	;# 
   828  0F17                     	;# 
   829  0F18                     	;# 
   830  0F19                     	;# 
   831  0F1A                     	;# 
   832  0F1B                     	;# 
   833  0F1C                     	;# 
   834  0F1D                     	;# 
   835  0F1E                     	;# 
   836  0F1F                     	;# 
   837  0F20                     	;# 
   838  0F21                     	;# 
   839  0F22                     	;# 
   840  0F23                     	;# 
   841  0FE4                     	;# 
   842  0FE5                     	;# 
   843  0FE6                     	;# 
   844  0FE7                     	;# 
   845  0FE8                     	;# 
   846  0FE9                     	;# 
   847  0FEA                     	;# 
   848  0FEB                     	;# 
   849  0FED                     	;# 
   850  0FEE                     	;# 
   851  0FEF                     	;# 
   852  0000                     	;# 
   853  0001                     	;# 
   854  0002                     	;# 
   855  0003                     	;# 
   856  0004                     	;# 
   857  0005                     	;# 
   858  0006                     	;# 
   859  0007                     	;# 
   860  0008                     	;# 
   861  0009                     	;# 
   862  000A                     	;# 
   863  000B                     	;# 
   864  000C                     	;# 
   865  000E                     	;# 
   866  0010                     	;# 
   867  0011                     	;# 
   868  0012                     	;# 
   869  0013                     	;# 
   870  0014                     	;# 
   871  0015                     	;# 
   872  0015                     	;# 
   873  0016                     	;# 
   874  0016                     	;# 
   875  0017                     	;# 
   876  0018                     	;# 
   877  0019                     	;# 
   878  0019                     	;# 
   879  001A                     	;# 
   880  001B                     	;# 
   881  001C                     	;# 
   882  001D                     	;# 
   883  001E                     	;# 
   884  001F                     	;# 
   885  008C                     	;# 
   886  008E                     	;# 
   887  0090                     	;# 
   888  0091                     	;# 
   889  0092                     	;# 
   890  0093                     	;# 
   891  0094                     	;# 
   892  0097                     	;# 
   893  009B                     	;# 
   894  009B                     	;# 
   895  009C                     	;# 
   896  009D                     	;# 
   897  009E                     	;# 
   898  009F                     	;# 
   899  010C                     	;# 
   900  010E                     	;# 
   901  0111                     	;# 
   902  0112                     	;# 
   903  0113                     	;# 
   904  0114                     	;# 
   905  0115                     	;# 
   906  0116                     	;# 
   907  0117                     	;# 
   908  0118                     	;# 
   909  0119                     	;# 
   910  018C                     	;# 
   911  018E                     	;# 
   912  0197                     	;# 
   913  0199                     	;# 
   914  0199                     	;# 
   915  0199                     	;# 
   916  019A                     	;# 
   917  019A                     	;# 
   918  019A                     	;# 
   919  019B                     	;# 
   920  019B                     	;# 
   921  019B                     	;# 
   922  019B                     	;# 
   923  019B                     	;# 
   924  019C                     	;# 
   925  019C                     	;# 
   926  019C                     	;# 
   927  019D                     	;# 
   928  019D                     	;# 
   929  019D                     	;# 
   930  019E                     	;# 
   931  019E                     	;# 
   932  019E                     	;# 
   933  019F                     	;# 
   934  019F                     	;# 
   935  019F                     	;# 
   936  019F                     	;# 
   937  019F                     	;# 
   938  020C                     	;# 
   939  020E                     	;# 
   940  0211                     	;# 
   941  0211                     	;# 
   942  0212                     	;# 
   943  0212                     	;# 
   944  0213                     	;# 
   945  0213                     	;# 
   946  0214                     	;# 
   947  0214                     	;# 
   948  0215                     	;# 
   949  0215                     	;# 
   950  0215                     	;# 
   951  0215                     	;# 
   952  0216                     	;# 
   953  0216                     	;# 
   954  0217                     	;# 
   955  0217                     	;# 
   956  028C                     	;# 
   957  028E                     	;# 
   958  0291                     	;# 
   959  0291                     	;# 
   960  0292                     	;# 
   961  0293                     	;# 
   962  0294                     	;# 
   963  0295                     	;# 
   964  0295                     	;# 
   965  0296                     	;# 
   966  0297                     	;# 
   967  0298                     	;# 
   968  030C                     	;# 
   969  030E                     	;# 
   970  038C                     	;# 
   971  038E                     	;# 
   972  0391                     	;# 
   973  0392                     	;# 
   974  0393                     	;# 
   975  0397                     	;# 
   976  0398                     	;# 
   977  0399                     	;# 
   978  039A                     	;# 
   979  039C                     	;# 
   980  039D                     	;# 
   981  039E                     	;# 
   982  039F                     	;# 
   983  0498                     	;# 
   984  0498                     	;# 
   985  0499                     	;# 
   986  049A                     	;# 
   987  049B                     	;# 
   988  049B                     	;# 
   989  049C                     	;# 
   990  049D                     	;# 
   991  049E                     	;# 
   992  049F                     	;# 
   993  0617                     	;# 
   994  0618                     	;# 
   995  0619                     	;# 
   996  0619                     	;# 
   997  061A                     	;# 
   998  061B                     	;# 
   999  061C                     	;# 
  1000  061C                     	;# 
  1001  0691                     	;# 
  1002  0692                     	;# 
  1003  0693                     	;# 
  1004  0694                     	;# 
  1005  0695                     	;# 
  1006  0696                     	;# 
  1007  0697                     	;# 
  1008  0698                     	;# 
  1009  0699                     	;# 
  1010  0891                     	;# 
  1011  0891                     	;# 
  1012  0891                     	;# 
  1013  0891                     	;# 
  1014  0891                     	;# 
  1015  0891                     	;# 
  1016  0892                     	;# 
  1017  0892                     	;# 
  1018  0892                     	;# 
  1019  0893                     	;# 
  1020  0893                     	;# 
  1021  0893                     	;# 
  1022  0893                     	;# 
  1023  0893                     	;# 
  1024  0893                     	;# 
  1025  0894                     	;# 
  1026  0894                     	;# 
  1027  0894                     	;# 
  1028  0895                     	;# 
  1029  0895                     	;# 
  1030  0895                     	;# 
  1031  0896                     	;# 
  1032  0896                     	;# 
  1033  0896                     	;# 
  1034  089B                     	;# 
  1035  0911                     	;# 
  1036  0912                     	;# 
  1037  0913                     	;# 
  1038  0914                     	;# 
  1039  0915                     	;# 
  1040  0916                     	;# 
  1041  0918                     	;# 
  1042  0919                     	;# 
  1043  091A                     	;# 
  1044  091B                     	;# 
  1045  091C                     	;# 
  1046  091D                     	;# 
  1047  091E                     	;# 
  1048  091F                     	;# 
  1049  0E0F                     	;# 
  1050  0E10                     	;# 
  1051  0E11                     	;# 
  1052  0E12                     	;# 
  1053  0E13                     	;# 
  1054  0E14                     	;# 
  1055  0E15                     	;# 
  1056  0E18                     	;# 
  1057  0E1A                     	;# 
  1058  0E1B                     	;# 
  1059  0E1C                     	;# 
  1060  0E20                     	;# 
  1061  0E21                     	;# 
  1062  0E22                     	;# 
  1063  0E24                     	;# 
  1064  0E25                     	;# 
  1065  0E28                     	;# 
  1066  0E29                     	;# 
  1067  0E2A                     	;# 
  1068  0E2B                     	;# 
  1069  0E90                     	;# 
  1070  0E91                     	;# 
  1071  0E92                     	;# 
  1072  0E94                     	;# 
  1073  0E95                     	;# 
  1074  0EA0                     	;# 
  1075  0EA1                     	;# 
  1076  0EA2                     	;# 
  1077  0EA3                     	;# 
  1078  0EA4                     	;# 
  1079  0EA5                     	;# 
  1080  0F0F                     	;# 
  1081  0F10                     	;# 
  1082  0F11                     	;# 
  1083  0F12                     	;# 
  1084  0F13                     	;# 
  1085  0F14                     	;# 
  1086  0F15                     	;# 
  1087  0F16                     	;# 
  1088  0F17                     	;# 
  1089  0F18                     	;# 
  1090  0F19                     	;# 
  1091  0F1A                     	;# 
  1092  0F1B                     	;# 
  1093  0F1C                     	;# 
  1094  0F1D                     	;# 
  1095  0F1E                     	;# 
  1096  0F1F                     	;# 
  1097  0F20                     	;# 
  1098  0F21                     	;# 
  1099  0F22                     	;# 
  1100  0F23                     	;# 
  1101  0FE4                     	;# 
  1102  0FE5                     	;# 
  1103  0FE6                     	;# 
  1104  0FE7                     	;# 
  1105  0FE8                     	;# 
  1106  0FE9                     	;# 
  1107  0FEA                     	;# 
  1108  0FEB                     	;# 
  1109  0FED                     	;# 
  1110  0FEE                     	;# 
  1111  0FEF                     	;# 
  1112  0000                     	;# 
  1113  0001                     	;# 
  1114  0002                     	;# 
  1115  0003                     	;# 
  1116  0004                     	;# 
  1117  0005                     	;# 
  1118  0006                     	;# 
  1119  0007                     	;# 
  1120  0008                     	;# 
  1121  0009                     	;# 
  1122  000A                     	;# 
  1123  000B                     	;# 
  1124  000C                     	;# 
  1125  000E                     	;# 
  1126  0010                     	;# 
  1127  0011                     	;# 
  1128  0012                     	;# 
  1129  0013                     	;# 
  1130  0014                     	;# 
  1131  0015                     	;# 
  1132  0015                     	;# 
  1133  0016                     	;# 
  1134  0016                     	;# 
  1135  0017                     	;# 
  1136  0018                     	;# 
  1137  0019                     	;# 
  1138  0019                     	;# 
  1139  001A                     	;# 
  1140  001B                     	;# 
  1141  001C                     	;# 
  1142  001D                     	;# 
  1143  001E                     	;# 
  1144  001F                     	;# 
  1145  008C                     	;# 
  1146  008E                     	;# 
  1147  0090                     	;# 
  1148  0091                     	;# 
  1149  0092                     	;# 
  1150  0093                     	;# 
  1151  0094                     	;# 
  1152  0097                     	;# 
  1153  009B                     	;# 
  1154  009B                     	;# 
  1155  009C                     	;# 
  1156  009D                     	;# 
  1157  009E                     	;# 
  1158  009F                     	;# 
  1159  010C                     	;# 
  1160  010E                     	;# 
  1161  0111                     	;# 
  1162  0112                     	;# 
  1163  0113                     	;# 
  1164  0114                     	;# 
  1165  0115                     	;# 
  1166  0116                     	;# 
  1167  0117                     	;# 
  1168  0118                     	;# 
  1169  0119                     	;# 
  1170  018C                     	;# 
  1171  018E                     	;# 
  1172  0197                     	;# 
  1173  0199                     	;# 
  1174  0199                     	;# 
  1175  0199                     	;# 
  1176  019A                     	;# 
  1177  019A                     	;# 
  1178  019A                     	;# 
  1179  019B                     	;# 
  1180  019B                     	;# 
  1181  019B                     	;# 
  1182  019B                     	;# 
  1183  019B                     	;# 
  1184  019C                     	;# 
  1185  019C                     	;# 
  1186  019C                     	;# 
  1187  019D                     	;# 
  1188  019D                     	;# 
  1189  019D                     	;# 
  1190  019E                     	;# 
  1191  019E                     	;# 
  1192  019E                     	;# 
  1193  019F                     	;# 
  1194  019F                     	;# 
  1195  019F                     	;# 
  1196  019F                     	;# 
  1197  019F                     	;# 
  1198  020C                     	;# 
  1199  020E                     	;# 
  1200  0211                     	;# 
  1201  0211                     	;# 
  1202  0212                     	;# 
  1203  0212                     	;# 
  1204  0213                     	;# 
  1205  0213                     	;# 
  1206  0214                     	;# 
  1207  0214                     	;# 
  1208  0215                     	;# 
  1209  0215                     	;# 
  1210  0215                     	;# 
  1211  0215                     	;# 
  1212  0216                     	;# 
  1213  0216                     	;# 
  1214  0217                     	;# 
  1215  0217                     	;# 
  1216  028C                     	;# 
  1217  028E                     	;# 
  1218  0291                     	;# 
  1219  0291                     	;# 
  1220  0292                     	;# 
  1221  0293                     	;# 
  1222  0294                     	;# 
  1223  0295                     	;# 
  1224  0295                     	;# 
  1225  0296                     	;# 
  1226  0297                     	;# 
  1227  0298                     	;# 
  1228  030C                     	;# 
  1229  030E                     	;# 
  1230  038C                     	;# 
  1231  038E                     	;# 
  1232  0391                     	;# 
  1233  0392                     	;# 
  1234  0393                     	;# 
  1235  0397                     	;# 
  1236  0398                     	;# 
  1237  0399                     	;# 
  1238  039A                     	;# 
  1239  039C                     	;# 
  1240  039D                     	;# 
  1241  039E                     	;# 
  1242  039F                     	;# 
  1243  0498                     	;# 
  1244  0498                     	;# 
  1245  0499                     	;# 
  1246  049A                     	;# 
  1247  049B                     	;# 
  1248  049B                     	;# 
  1249  049C                     	;# 
  1250  049D                     	;# 
  1251  049E                     	;# 
  1252  049F                     	;# 
  1253  0617                     	;# 
  1254  0618                     	;# 
  1255  0619                     	;# 
  1256  0619                     	;# 
  1257  061A                     	;# 
  1258  061B                     	;# 
  1259  061C                     	;# 
  1260  061C                     	;# 
  1261  0691                     	;# 
  1262  0692                     	;# 
  1263  0693                     	;# 
  1264  0694                     	;# 
  1265  0695                     	;# 
  1266  0696                     	;# 
  1267  0697                     	;# 
  1268  0698                     	;# 
  1269  0699                     	;# 
  1270  0891                     	;# 
  1271  0891                     	;# 
  1272  0891                     	;# 
  1273  0891                     	;# 
  1274  0891                     	;# 
  1275  0891                     	;# 
  1276  0892                     	;# 
  1277  0892                     	;# 
  1278  0892                     	;# 
  1279  0893                     	;# 
  1280  0893                     	;# 
  1281  0893                     	;# 
  1282  0893                     	;# 
  1283  0893                     	;# 
  1284  0893                     	;# 
  1285  0894                     	;# 
  1286  0894                     	;# 
  1287  0894                     	;# 
  1288  0895                     	;# 
  1289  0895                     	;# 
  1290  0895                     	;# 
  1291  0896                     	;# 
  1292  0896                     	;# 
  1293  0896                     	;# 
  1294  089B                     	;# 
  1295  0911                     	;# 
  1296  0912                     	;# 
  1297  0913                     	;# 
  1298  0914                     	;# 
  1299  0915                     	;# 
  1300  0916                     	;# 
  1301  0918                     	;# 
  1302  0919                     	;# 
  1303  091A                     	;# 
  1304  091B                     	;# 
  1305  091C                     	;# 
  1306  091D                     	;# 
  1307  091E                     	;# 
  1308  091F                     	;# 
  1309  0E0F                     	;# 
  1310  0E10                     	;# 
  1311  0E11                     	;# 
  1312  0E12                     	;# 
  1313  0E13                     	;# 
  1314  0E14                     	;# 
  1315  0E15                     	;# 
  1316  0E18                     	;# 
  1317  0E1A                     	;# 
  1318  0E1B                     	;# 
  1319  0E1C                     	;# 
  1320  0E20                     	;# 
  1321  0E21                     	;# 
  1322  0E22                     	;# 
  1323  0E24                     	;# 
  1324  0E25                     	;# 
  1325  0E28                     	;# 
  1326  0E29                     	;# 
  1327  0E2A                     	;# 
  1328  0E2B                     	;# 
  1329  0E90                     	;# 
  1330  0E91                     	;# 
  1331  0E92                     	;# 
  1332  0E94                     	;# 
  1333  0E95                     	;# 
  1334  0EA0                     	;# 
  1335  0EA1                     	;# 
  1336  0EA2                     	;# 
  1337  0EA3                     	;# 
  1338  0EA4                     	;# 
  1339  0EA5                     	;# 
  1340  0F0F                     	;# 
  1341  0F10                     	;# 
  1342  0F11                     	;# 
  1343  0F12                     	;# 
  1344  0F13                     	;# 
  1345  0F14                     	;# 
  1346  0F15                     	;# 
  1347  0F16                     	;# 
  1348  0F17                     	;# 
  1349  0F18                     	;# 
  1350  0F19                     	;# 
  1351  0F1A                     	;# 
  1352  0F1B                     	;# 
  1353  0F1C                     	;# 
  1354  0F1D                     	;# 
  1355  0F1E                     	;# 
  1356  0F1F                     	;# 
  1357  0F20                     	;# 
  1358  0F21                     	;# 
  1359  0F22                     	;# 
  1360  0F23                     	;# 
  1361  0FE4                     	;# 
  1362  0FE5                     	;# 
  1363  0FE6                     	;# 
  1364  0FE7                     	;# 
  1365  0FE8                     	;# 
  1366  0FE9                     	;# 
  1367  0FEA                     	;# 
  1368  0FEB                     	;# 
  1369  0FED                     	;# 
  1370  0FEE                     	;# 
  1371  0FEF                     	;# 
  1372  0000                     	;# 
  1373  0001                     	;# 
  1374  0002                     	;# 
  1375  0003                     	;# 
  1376  0004                     	;# 
  1377  0005                     	;# 
  1378  0006                     	;# 
  1379  0007                     	;# 
  1380  0008                     	;# 
  1381  0009                     	;# 
  1382  000A                     	;# 
  1383  000B                     	;# 
  1384  000C                     	;# 
  1385  000E                     	;# 
  1386  0010                     	;# 
  1387  0011                     	;# 
  1388  0012                     	;# 
  1389  0013                     	;# 
  1390  0014                     	;# 
  1391  0015                     	;# 
  1392  0015                     	;# 
  1393  0016                     	;# 
  1394  0016                     	;# 
  1395  0017                     	;# 
  1396  0018                     	;# 
  1397  0019                     	;# 
  1398  0019                     	;# 
  1399  001A                     	;# 
  1400  001B                     	;# 
  1401  001C                     	;# 
  1402  001D                     	;# 
  1403  001E                     	;# 
  1404  001F                     	;# 
  1405  008C                     	;# 
  1406  008E                     	;# 
  1407  0090                     	;# 
  1408  0091                     	;# 
  1409  0092                     	;# 
  1410  0093                     	;# 
  1411  0094                     	;# 
  1412  0097                     	;# 
  1413  009B                     	;# 
  1414  009B                     	;# 
  1415  009C                     	;# 
  1416  009D                     	;# 
  1417  009E                     	;# 
  1418  009F                     	;# 
  1419  010C                     	;# 
  1420  010E                     	;# 
  1421  0111                     	;# 
  1422  0112                     	;# 
  1423  0113                     	;# 
  1424  0114                     	;# 
  1425  0115                     	;# 
  1426  0116                     	;# 
  1427  0117                     	;# 
  1428  0118                     	;# 
  1429  0119                     	;# 
  1430  018C                     	;# 
  1431  018E                     	;# 
  1432  0197                     	;# 
  1433  0199                     	;# 
  1434  0199                     	;# 
  1435  0199                     	;# 
  1436  019A                     	;# 
  1437  019A                     	;# 
  1438  019A                     	;# 
  1439  019B                     	;# 
  1440  019B                     	;# 
  1441  019B                     	;# 
  1442  019B                     	;# 
  1443  019B                     	;# 
  1444  019C                     	;# 
  1445  019C                     	;# 
  1446  019C                     	;# 
  1447  019D                     	;# 
  1448  019D                     	;# 
  1449  019D                     	;# 
  1450  019E                     	;# 
  1451  019E                     	;# 
  1452  019E                     	;# 
  1453  019F                     	;# 
  1454  019F                     	;# 
  1455  019F                     	;# 
  1456  019F                     	;# 
  1457  019F                     	;# 
  1458  020C                     	;# 
  1459  020E                     	;# 
  1460  0211                     	;# 
  1461  0211                     	;# 
  1462  0212                     	;# 
  1463  0212                     	;# 
  1464  0213                     	;# 
  1465  0213                     	;# 
  1466  0214                     	;# 
  1467  0214                     	;# 
  1468  0215                     	;# 
  1469  0215                     	;# 
  1470  0215                     	;# 
  1471  0215                     	;# 
  1472  0216                     	;# 
  1473  0216                     	;# 
  1474  0217                     	;# 
  1475  0217                     	;# 
  1476  028C                     	;# 
  1477  028E                     	;# 
  1478  0291                     	;# 
  1479  0291                     	;# 
  1480  0292                     	;# 
  1481  0293                     	;# 
  1482  0294                     	;# 
  1483  0295                     	;# 
  1484  0295                     	;# 
  1485  0296                     	;# 
  1486  0297                     	;# 
  1487  0298                     	;# 
  1488  030C                     	;# 
  1489  030E                     	;# 
  1490  038C                     	;# 
  1491  038E                     	;# 
  1492  0391                     	;# 
  1493  0392                     	;# 
  1494  0393                     	;# 
  1495  0397                     	;# 
  1496  0398                     	;# 
  1497  0399                     	;# 
  1498  039A                     	;# 
  1499  039C                     	;# 
  1500  039D                     	;# 
  1501  039E                     	;# 
  1502  039F                     	;# 
  1503  0498                     	;# 
  1504  0498                     	;# 
  1505  0499                     	;# 
  1506  049A                     	;# 
  1507  049B                     	;# 
  1508  049B                     	;# 
  1509  049C                     	;# 
  1510  049D                     	;# 
  1511  049E                     	;# 
  1512  049F                     	;# 
  1513  0617                     	;# 
  1514  0618                     	;# 
  1515  0619                     	;# 
  1516  0619                     	;# 
  1517  061A                     	;# 
  1518  061B                     	;# 
  1519  061C                     	;# 
  1520  061C                     	;# 
  1521  0691                     	;# 
  1522  0692                     	;# 
  1523  0693                     	;# 
  1524  0694                     	;# 
  1525  0695                     	;# 
  1526  0696                     	;# 
  1527  0697                     	;# 
  1528  0698                     	;# 
  1529  0699                     	;# 
  1530  0891                     	;# 
  1531  0891                     	;# 
  1532  0891                     	;# 
  1533  0891                     	;# 
  1534  0891                     	;# 
  1535  0891                     	;# 
  1536  0892                     	;# 
  1537  0892                     	;# 
  1538  0892                     	;# 
  1539  0893                     	;# 
  1540  0893                     	;# 
  1541  0893                     	;# 
  1542  0893                     	;# 
  1543  0893                     	;# 
  1544  0893                     	;# 
  1545  0894                     	;# 
  1546  0894                     	;# 
  1547  0894                     	;# 
  1548  0895                     	;# 
  1549  0895                     	;# 
  1550  0895                     	;# 
  1551  0896                     	;# 
  1552  0896                     	;# 
  1553  0896                     	;# 
  1554  089B                     	;# 
  1555  0911                     	;# 
  1556  0912                     	;# 
  1557  0913                     	;# 
  1558  0914                     	;# 
  1559  0915                     	;# 
  1560  0916                     	;# 
  1561  0918                     	;# 
  1562  0919                     	;# 
  1563  091A                     	;# 
  1564  091B                     	;# 
  1565  091C                     	;# 
  1566  091D                     	;# 
  1567  091E                     	;# 
  1568  091F                     	;# 
  1569  0E0F                     	;# 
  1570  0E10                     	;# 
  1571  0E11                     	;# 
  1572  0E12                     	;# 
  1573  0E13                     	;# 
  1574  0E14                     	;# 
  1575  0E15                     	;# 
  1576  0E18                     	;# 
  1577  0E1A                     	;# 
  1578  0E1B                     	;# 
  1579  0E1C                     	;# 
  1580  0E20                     	;# 
  1581  0E21                     	;# 
  1582  0E22                     	;# 
  1583  0E24                     	;# 
  1584  0E25                     	;# 
  1585  0E28                     	;# 
  1586  0E29                     	;# 
  1587  0E2A                     	;# 
  1588  0E2B                     	;# 
  1589  0E90                     	;# 
  1590  0E91                     	;# 
  1591  0E92                     	;# 
  1592  0E94                     	;# 
  1593  0E95                     	;# 
  1594  0EA0                     	;# 
  1595  0EA1                     	;# 
  1596  0EA2                     	;# 
  1597  0EA3                     	;# 
  1598  0EA4                     	;# 
  1599  0EA5                     	;# 
  1600  0F0F                     	;# 
  1601  0F10                     	;# 
  1602  0F11                     	;# 
  1603  0F12                     	;# 
  1604  0F13                     	;# 
  1605  0F14                     	;# 
  1606  0F15                     	;# 
  1607  0F16                     	;# 
  1608  0F17                     	;# 
  1609  0F18                     	;# 
  1610  0F19                     	;# 
  1611  0F1A                     	;# 
  1612  0F1B                     	;# 
  1613  0F1C                     	;# 
  1614  0F1D                     	;# 
  1615  0F1E                     	;# 
  1616  0F1F                     	;# 
  1617  0F20                     	;# 
  1618  0F21                     	;# 
  1619  0F22                     	;# 
  1620  0F23                     	;# 
  1621  0FE4                     	;# 
  1622  0FE5                     	;# 
  1623  0FE6                     	;# 
  1624  0FE7                     	;# 
  1625  0FE8                     	;# 
  1626  0FE9                     	;# 
  1627  0FEA                     	;# 
  1628  0FEB                     	;# 
  1629  0FED                     	;# 
  1630  0FEE                     	;# 
  1631  0FEF                     	;# 
  1632                           
  1633 ;; Function _SPI1_Isr is unused but had its address taken
  1634  0000                     
  1635                           	psect	idataBANK0
  1636  01B0                     __pidataBANK0:
  1637                           
  1638                           ;initializer for NRF_RX_Init@F5222
  1639  01B0  3441               	retlw	65
  1640  01B1  3441               	retlw	65
  1641  01B2  3441               	retlw	65
  1642  01B3  3441               	retlw	65
  1643  01B4  3441               	retlw	65
  1644                           
  1645                           ;initializer for NRF_TX_Init@F5219
  1646  01B5  3441               	retlw	65
  1647  01B6  3441               	retlw	65
  1648  01B7  3441               	retlw	65
  1649  01B8  3441               	retlw	65
  1650  01B9  3441               	retlw	65
  1651                           
  1652                           	psect	stringtext1
  1653  01EC                     __pstringtext1:
  1654  01EC                     _spi1_configuration:
  1655  01EC  3400               	retlw	0
  1656  01ED  34C0               	retlw	192
  1657  01EE  3401               	retlw	1
  1658  01EF  3400               	retlw	0
  1659  01F0                     __end_of_spi1_configuration:
  1660                           
  1661                           	psect	nvBANK0
  1662  002A                     __pnvBANK0:
  1663  002A                     _IOCAF5_InterruptHandler:
  1664  002A                     	ds	2
  1665  002C                     _MSSP1_InterruptHandler:
  1666  002C                     	ds	2
  1667  0010                     _PIR0bits	set	16
  1668  0011                     _PIR1bits	set	17
  1669  008C                     _TRISAbits	set	140
  1670  008E                     _TRISC	set	142
  1671  008C                     _TRISA	set	140
  1672  0090                     _PIE0bits	set	144
  1673  0097                     _WDTCON	set	151
  1674  008E                     _TRISCbits	set	142
  1675  0091                     _PIE1bits	set	145
  1676  010E                     _LATCbits	set	270
  1677  010C                     _LATAbits	set	268
  1678  010E                     _LATC	set	270
  1679  010C                     _LATA	set	268
  1680  018C                     _ANSELA	set	396
  1681  018E                     _ANSELC	set	398
  1682  020E                     _WPUC	set	526
  1683  020C                     _WPUA	set	524
  1684  0211                     _SSP1BUF	set	529
  1685  0216                     _SSP1CON2	set	534
  1686  0215                     _SSP1CON1bits	set	533
  1687  0212                     _SSP1ADD	set	530
  1688  0215                     _SSP1CON1	set	533
  1689  0214                     _SSP1STAT	set	532
  1690  028E                     _ODCONC	set	654
  1691  028C                     _ODCONA	set	652
  1692  030E                     _SLRCONC	set	782
  1693  030C                     _SLRCONA	set	780
  1694  0391                     _IOCAPbits	set	913
  1695  0392                     _IOCANbits	set	914
  1696  0393                     _IOCAFbits	set	915
  1697  038E                     _INLVLC	set	910
  1698  038C                     _INLVLA	set	908
  1699  0916                     _PMD5	set	2326
  1700  0915                     _PMD4	set	2325
  1701  0914                     _PMD3	set	2324
  1702  0913                     _PMD2	set	2323
  1703  0912                     _PMD1	set	2322
  1704  0911                     _PMD0	set	2321
  1705  091E                     _OSCTUNE	set	2334
  1706  091F                     _OSCFRQ	set	2335
  1707  091D                     _OSCEN	set	2333
  1708  091B                     _OSCCON3	set	2331
  1709  0919                     _OSCCON1	set	2329
  1710  0E21                     _SSP1DATPPS	set	3617
  1711  0E20                     _SSP1CLKPPS	set	3616
  1712  0EA2                     _RC2PPS	set	3746
  1713  0EA0                     _RC0PPS	set	3744
  1714                           
  1715                           	psect	cinit
  1716  0016                     start_initialization:	
  1717                           ; #config settings
  1718                           
  1719  0016                     __initialization:
  1720                           
  1721                           ; Initialize objects allocated to BANK0
  1722  0016  30B0               	movlw	low __pidataBANK0
  1723  0017  0084               	movwf	4
  1724  0018  3081               	movlw	(high __pidataBANK0)| (0+128)
  1725  0019  0085               	movwf	5
  1726  001A  3020               	movlw	low __pdataBANK0
  1727  001B  0086               	movwf	6
  1728  001C  3000               	movlw	high __pdataBANK0
  1729  001D  0087               	movwf	7
  1730  001E  300A               	movlw	10
  1731  001F  3181  21D4  3180   	fcall	init_ram
  1732  0022                     end_of_initialization:	
  1733                           ;End of C runtime variable initialization code
  1734                           
  1735  0022                     __end_of__initialization:
  1736  0022  107E               	bcf	int$flags,0	;clear compiler interrupt flag (level 1)
  1737  0023  0020               	movlb	0
  1738  0024  294A               	ljmp	_main	;jump to C main() function
  1739                           
  1740                           	psect	dataBANK0
  1741  0020                     __pdataBANK0:
  1742  0020                     NRF_RX_Init@F5222:
  1743  0020                     	ds	5
  1744  0025                     NRF_TX_Init@F5219:
  1745  0025                     	ds	5
  1746                           
  1747                           	psect	inittext
  1748  01D4                     init_ram:
  1749  01D4  00FE               	movwf	btemp
  1750  01D5                     initloop:
  1751  01D5  0012               	moviw fsr0++
  1752  01D6  001E               	movwi fsr1++
  1753  01D7  0BFE               	decfsz	btemp,f
  1754  01D8  29D5               	goto	initloop
  1755  01D9  3400               	retlw	0
  1756                           
  1757                           	psect	cstackCOMMON
  1758  0070                     __pcstackCOMMON:
  1759  0070                     ?_SPI1_SetInterruptHandler:
  1760  0070                     ?_PMD_Initialize:	
  1761                           ; 1 bytes @ 0x0
  1762                           
  1763  0070                     ??_PMD_Initialize:	
  1764                           ; 1 bytes @ 0x0
  1765                           
  1766  0070                     ?_PIN_MANAGER_Initialize:	
  1767                           ; 1 bytes @ 0x0
  1768                           
  1769  0070                     ?_OSCILLATOR_Initialize:	
  1770                           ; 1 bytes @ 0x0
  1771                           
  1772  0070                     ??_OSCILLATOR_Initialize:	
  1773                           ; 1 bytes @ 0x0
  1774                           
  1775  0070                     ?_WDT_Initialize:	
  1776                           ; 1 bytes @ 0x0
  1777                           
  1778  0070                     ??_WDT_Initialize:	
  1779                           ; 1 bytes @ 0x0
  1780                           
  1781  0070                     ?_PIN_MANAGER_IOC:	
  1782                           ; 1 bytes @ 0x0
  1783                           
  1784  0070                     ??_PIN_MANAGER_IOC:	
  1785                           ; 1 bytes @ 0x0
  1786                           
  1787  0070                     ?_IOCAF5_SetInterruptHandler:	
  1788                           ; 1 bytes @ 0x0
  1789                           
  1790  0070                     ?_IOCAF5_DefaultInterruptHandler:	
  1791                           ; 1 bytes @ 0x0
  1792                           
  1793  0070                     ??_IOCAF5_DefaultInterruptHandler:	
  1794                           ; 1 bytes @ 0x0
  1795                           
  1796  0070                     ?_IOCAF5_ISR:	
  1797                           ; 1 bytes @ 0x0
  1798                           
  1799  0070                     ??_IOCAF5_ISR:	
  1800                           ; 1 bytes @ 0x0
  1801                           
  1802  0070                     ?_SPI1_Initialize:	
  1803                           ; 1 bytes @ 0x0
  1804                           
  1805  0070                     ?_SPI1_ExchangeByte:	
  1806                           ; 1 bytes @ 0x0
  1807                           
  1808  0070                     ??_SPI1_ExchangeByte:	
  1809                           ; 1 bytes @ 0x0
  1810                           
  1811  0070                     ?_SYSTEM_Initialize:	
  1812                           ; 1 bytes @ 0x0
  1813                           
  1814  0070                     ?_INTERRUPT_InterruptManager:	
  1815                           ; 1 bytes @ 0x0
  1816                           
  1817  0070                     ??_INTERRUPT_InterruptManager:	
  1818                           ; 1 bytes @ 0x0
  1819                           
  1820  0070                     ?_NRF_SPI:	
  1821                           ; 1 bytes @ 0x0
  1822                           
  1823  0070                     ?_NRF_RX_Init:	
  1824                           ; 1 bytes @ 0x0
  1825                           
  1826  0070                     ?_NRF_ReadRegister:	
  1827                           ; 1 bytes @ 0x0
  1828                           
  1829  0070                     ?_check_and_read_data:	
  1830                           ; 1 bytes @ 0x0
  1831                           
  1832  0070                     ?_main:	
  1833                           ; 1 bytes @ 0x0
  1834                           
  1835  0070                     SPI1_ExchangeByte@data:	
  1836                           ; 1 bytes @ 0x0
  1837                           
  1838  0070                     SPI1_SetInterruptHandler@handler:	
  1839                           ; 1 bytes @ 0x0
  1840                           
  1841  0070                     IOCAF5_SetInterruptHandler@InterruptHandler:	
  1842                           ; 2 bytes @ 0x0
  1843                           
  1844                           
  1845                           ; 2 bytes @ 0x0
  1846  0070                     	ds	1
  1847  0071                     ??_NRF_SPI:
  1848  0071                     NRF_SPI@data:	
  1849                           ; 1 bytes @ 0x1
  1850                           
  1851                           
  1852                           ; 1 bytes @ 0x1
  1853  0071                     	ds	1
  1854  0072                     ??_SPI1_SetInterruptHandler:
  1855  0072                     ??_PIN_MANAGER_Initialize:	
  1856                           ; 1 bytes @ 0x2
  1857                           
  1858  0072                     ??_IOCAF5_SetInterruptHandler:	
  1859                           ; 1 bytes @ 0x2
  1860                           
  1861  0072                     ??_SPI1_Initialize:	
  1862                           ; 1 bytes @ 0x2
  1863                           
  1864  0072                     ??_SYSTEM_Initialize:	
  1865                           ; 1 bytes @ 0x2
  1866                           
  1867  0072                     ?_NRF_WriteRegister:	
  1868                           ; 1 bytes @ 0x2
  1869                           
  1870  0072                     ?_NRF_WriteRegisterMulti:	
  1871                           ; 1 bytes @ 0x2
  1872                           
  1873  0072                     ??_NRF_ReadRegister:	
  1874                           ; 1 bytes @ 0x2
  1875                           
  1876  0072                     ?_NRF_ReadPayload:	
  1877                           ; 1 bytes @ 0x2
  1878                           
  1879  0072                     NRF_WriteRegister@value:	
  1880                           ; 1 bytes @ 0x2
  1881                           
  1882  0072                     NRF_WriteRegisterMulti@data:	
  1883                           ; 1 bytes @ 0x2
  1884                           
  1885  0072                     NRF_ReadPayload@len:	
  1886                           ; 1 bytes @ 0x2
  1887                           
  1888                           
  1889                           ; 1 bytes @ 0x2
  1890  0072                     	ds	1
  1891  0073                     ??_NRF_WriteRegister:
  1892  0073                     ??_NRF_ReadPayload:	
  1893                           ; 1 bytes @ 0x3
  1894                           
  1895  0073                     NRF_WriteRegister@reg:	
  1896                           ; 1 bytes @ 0x3
  1897                           
  1898  0073                     NRF_WriteRegisterMulti@len:	
  1899                           ; 1 bytes @ 0x3
  1900                           
  1901  0073                     NRF_ReadRegister@reg:	
  1902                           ; 1 bytes @ 0x3
  1903                           
  1904                           
  1905                           ; 1 bytes @ 0x3
  1906  0073                     	ds	1
  1907  0074                     ??_NRF_WriteRegisterMulti:
  1908  0074                     NRF_ReadRegister@result:	
  1909                           ; 1 bytes @ 0x4
  1910                           
  1911                           
  1912                           ; 1 bytes @ 0x4
  1913  0074                     	ds	1
  1914  0075                     NRF_WriteRegisterMulti@reg:
  1915  0075                     NRF_ReadPayload@data:	
  1916                           ; 1 bytes @ 0x5
  1917                           
  1918                           
  1919                           ; 1 bytes @ 0x5
  1920  0075                     	ds	1
  1921  0076                     NRF_WriteRegisterMulti@i:
  1922  0076                     NRF_ReadPayload@i:	
  1923                           ; 1 bytes @ 0x6
  1924                           
  1925                           
  1926                           ; 1 bytes @ 0x6
  1927  0076                     	ds	1
  1928  0077                     ??_NRF_RX_Init:
  1929  0077                     ??_check_and_read_data:	
  1930                           ; 1 bytes @ 0x7
  1931                           
  1932                           
  1933                           ; 1 bytes @ 0x7
  1934  0077                     	ds	1
  1935  0078                     check_and_read_data@status:
  1936                           
  1937                           ; 1 bytes @ 0x8
  1938  0078                     	ds	1
  1939  0079                     check_and_read_data@payload:
  1940  0079                     NRF_RX_Init@rx_address:	
  1941                           ; 1 bytes @ 0x9
  1942                           
  1943                           
  1944                           ; 5 bytes @ 0x9
  1945  0079                     	ds	5
  1946                           
  1947                           	psect	cstackBANK0
  1948  002E                     __pcstackBANK0:
  1949  002E                     ??_main:
  1950                           
  1951                           ; 1 bytes @ 0x0
  1952  002E                     	ds	1
  1953                           
  1954                           	psect	maintext
  1955  014A                     __pmaintext:	
  1956 ;;
  1957 ;;Main: autosize = 0, tempsize = 1, incstack = 0, save=0
  1958 ;;
  1959 ;; *************** function _main *****************
  1960 ;; Defined at:
  1961 ;;		line 234 in file "main.c"
  1962 ;; Parameters:    Size  Location     Type
  1963 ;;		None
  1964 ;; Auto vars:     Size  Location     Type
  1965 ;;		None
  1966 ;; Return value:  Size  Location     Type
  1967 ;;                  1    wreg      void 
  1968 ;; Registers used:
  1969 ;;		wreg, fsr0l, fsr0h, fsr1l, fsr1h, status,2, status,0, pclath, cstack
  1970 ;; Tracked objects:
  1971 ;;		On entry : B1F/0
  1972 ;;		On exit  : 0/0
  1973 ;;		Unchanged: 0/0
  1974 ;; Data sizes:     COMMON   BANK0   BANK1   BANK2
  1975 ;;      Params:         0       0       0       0
  1976 ;;      Locals:         0       0       0       0
  1977 ;;      Temps:          0       1       0       0
  1978 ;;      Totals:         0       1       0       0
  1979 ;;Total ram usage:        1 bytes
  1980 ;; Hardware stack levels required when called: 8
  1981 ;; This function calls:
  1982 ;;		_NRF_RX_Init
  1983 ;;		_SYSTEM_Initialize
  1984 ;;		_check_and_read_data
  1985 ;; This function is called by:
  1986 ;;		Startup code after reset
  1987 ;; This function uses a non-reentrant model
  1988 ;;
  1989                           
  1990  014A                     _main:	
  1991                           ;psect for function _main
  1992                           
  1993  014A                     l1489:	
  1994                           ;incstack = 0
  1995                           ; Regs used in _main: [wreg-fsr1h+status,2+status,0+pclath+cstack]
  1996                           
  1997                           
  1998                           ;main.c: 236:     SYSTEM_Initialize();
  1999  014A  3181  2174  3181   	fcall	_SYSTEM_Initialize
  2000  014D                     l1491:
  2001                           
  2002                           ;main.c: 237:     TRISAbits.TRISA2 = 0;
  2003  014D  0021               	movlb	1	; select bank1
  2004  014E  110C               	bcf	12,2	;volatile
  2005  014F                     l1493:
  2006                           
  2007                           ;main.c: 238:     TRISCbits.TRISC3=1;
  2008  014F  158E               	bsf	14,3	;volatile
  2009  0150                     l1495:
  2010                           
  2011                           ;main.c: 254:    NRF_RX_Init();
  2012  0150  3180  2025  3181   	fcall	_NRF_RX_Init
  2013  0153                     l1497:
  2014                           
  2015                           ;main.c: 255:   _delay((unsigned long)((30)*(1000000/4000.0)));
  2016  0153  300A               	movlw	10
  2017  0154  0020               	movlb	0	; select bank0
  2018  0155  00AE               	movwf	??_main
  2019  0156  30BC               	movlw	188
  2020  0157                     u367:
  2021  0157  0B89               	decfsz	9,f
  2022  0158  2957               	goto	u367
  2023  0159  0BAE               	decfsz	??_main,f
  2024  015A  2957               	goto	u367
  2025  015B  0000               	nop
  2026  015C                     l1499:
  2027                           
  2028                           ;main.c: 257: {;main.c: 284:         check_and_read_data();
  2029  015C  3180  20B4  3181   	fcall	_check_and_read_data
  2030  015F  295C               	goto	l1499
  2031  0160  2815               	ljmp	start
  2032  0161                     __end_of_main:
  2033                           
  2034                           	psect	text1
  2035  00B4                     __ptext1:	
  2036 ;; *************** function _check_and_read_data *****************
  2037 ;; Defined at:
  2038 ;;		line 214 in file "main.c"
  2039 ;; Parameters:    Size  Location     Type
  2040 ;;		None
  2041 ;; Auto vars:     Size  Location     Type
  2042 ;;  payload         1    9[COMMON] unsigned char [1]
  2043 ;;  status          1    8[COMMON] unsigned char 
  2044 ;; Return value:  Size  Location     Type
  2045 ;;                  1    wreg      void 
  2046 ;; Registers used:
  2047 ;;		wreg, fsr1l, fsr1h, status,2, status,0, pclath, cstack
  2048 ;; Tracked objects:
  2049 ;;		On entry : 0/0
  2050 ;;		On exit  : 0/0
  2051 ;;		Unchanged: 0/0
  2052 ;; Data sizes:     COMMON   BANK0   BANK1   BANK2
  2053 ;;      Params:         0       0       0       0
  2054 ;;      Locals:         2       0       0       0
  2055 ;;      Temps:          1       0       0       0
  2056 ;;      Totals:         3       0       0       0
  2057 ;;Total ram usage:        3 bytes
  2058 ;; Hardware stack levels used: 1
  2059 ;; Hardware stack levels required when called: 7
  2060 ;; This function calls:
  2061 ;;		_NRF_ReadPayload
  2062 ;;		_NRF_ReadRegister
  2063 ;;		_NRF_WriteRegister
  2064 ;; This function is called by:
  2065 ;;		_main
  2066 ;; This function uses a non-reentrant model
  2067 ;;
  2068                           
  2069  00B4                     _check_and_read_data:	
  2070                           ;psect for function _check_and_read_data
  2071                           
  2072  00B4                     l1383:	
  2073                           ;incstack = 0
  2074                           ; Regs used in _check_and_read_data: [wreg+fsr1l+fsr1h+status,2+status,0+pclath+cstack]
  2075                           
  2076                           
  2077                           ;main.c: 218:      uint8_t status = NRF_ReadRegister(0x07);
  2078  00B4  3007               	movlw	7
  2079  00B5  3181  2161  3180   	fcall	_NRF_ReadRegister
  2080  00B8  00F7               	movwf	??_check_and_read_data
  2081  00B9  0877               	movf	??_check_and_read_data,w
  2082  00BA  00F8               	movwf	check_and_read_data@status
  2083  00BB                     l1385:
  2084                           
  2085                           ;main.c: 219:      uint8_t payload[1];;main.c: 220:      if (status & 0x40) {
  2086  00BB  1F78               	btfss	check_and_read_data@status,6
  2087  00BC  28BE               	goto	u281
  2088  00BD  28BF               	goto	u280
  2089  00BE                     u281:
  2090  00BE  28DF               	goto	l287
  2091  00BF                     u280:
  2092  00BF                     l1387:
  2093                           
  2094                           ;main.c: 221:             NRF_ReadPayload(payload, 1);
  2095  00BF  01F2               	clrf	NRF_ReadPayload@len
  2096  00C0  0AF2               	incf	NRF_ReadPayload@len,f
  2097  00C1  3079               	movlw	(low (check_and_read_data@payload| 0))& (0+255)
  2098  00C2  3180  20E0  3180   	fcall	_NRF_ReadPayload
  2099  00C5                     l1389:
  2100                           
  2101                           ;main.c: 223:             NRF_WriteRegister(0x07, 0x70);
  2102  00C5  3070               	movlw	112
  2103  00C6  00F7               	movwf	??_check_and_read_data
  2104  00C7  0877               	movf	??_check_and_read_data,w
  2105  00C8  00F2               	movwf	NRF_WriteRegister@value
  2106  00C9  3007               	movlw	7
  2107  00CA  3181  2184  3180   	fcall	_NRF_WriteRegister
  2108  00CD                     l1391:
  2109                           
  2110                           ;main.c: 225:             if (payload[0] == 0x44) {
  2111  00CD  3044               	movlw	68
  2112  00CE  0679               	xorwf	check_and_read_data@payload,w
  2113  00CF  1D03               	btfss	3,2
  2114  00D0  28D2               	goto	u291
  2115  00D1  28D3               	goto	u290
  2116  00D2                     u291:
  2117  00D2  28DF               	goto	l287
  2118  00D3                     u290:
  2119  00D3                     l1393:
  2120                           
  2121                           ;main.c: 226:                 LATAbits.LATA2 = 1;
  2122  00D3  0022               	movlb	2	; select bank2
  2123  00D4  150C               	bsf	12,2	;volatile
  2124  00D5                     l1395:
  2125                           
  2126                           ;main.c: 227:                 _delay((unsigned long)((100)*(1000000/4000.0)));
  2127  00D5  3021               	movlw	33
  2128  00D6  00F7               	movwf	??_check_and_read_data
  2129  00D7  3076               	movlw	118
  2130  00D8                     u377:
  2131  00D8  0B89               	decfsz	9,f
  2132  00D9  28D8               	goto	u377
  2133  00DA  0BF7               	decfsz	??_check_and_read_data,f
  2134  00DB  28D8               	goto	u377
  2135  00DC  3200               	nop2
  2136  00DD                     l1397:
  2137                           
  2138                           ;main.c: 228:                 LATAbits.LATA2 = 0;
  2139  00DD  0022               	movlb	2	; select bank2
  2140  00DE  110C               	bcf	12,2	;volatile
  2141  00DF                     l287:
  2142  00DF  0008               	return
  2143  00E0                     __end_of_check_and_read_data:
  2144                           
  2145                           	psect	text2
  2146  0161                     __ptext2:	
  2147 ;; *************** function _NRF_ReadRegister *****************
  2148 ;; Defined at:
  2149 ;;		line 177 in file "main.c"
  2150 ;; Parameters:    Size  Location     Type
  2151 ;;  reg             1    wreg     unsigned char 
  2152 ;; Auto vars:     Size  Location     Type
  2153 ;;  reg             1    3[COMMON] unsigned char 
  2154 ;;  result          1    4[COMMON] unsigned char 
  2155 ;; Return value:  Size  Location     Type
  2156 ;;                  1    wreg      unsigned char 
  2157 ;; Registers used:
  2158 ;;		wreg, status,2, status,0, pclath, cstack
  2159 ;; Tracked objects:
  2160 ;;		On entry : 0/0
  2161 ;;		On exit  : 0/0
  2162 ;;		Unchanged: 0/0
  2163 ;; Data sizes:     COMMON   BANK0   BANK1   BANK2
  2164 ;;      Params:         0       0       0       0
  2165 ;;      Locals:         2       0       0       0
  2166 ;;      Temps:          1       0       0       0
  2167 ;;      Totals:         3       0       0       0
  2168 ;;Total ram usage:        3 bytes
  2169 ;; Hardware stack levels used: 1
  2170 ;; Hardware stack levels required when called: 6
  2171 ;; This function calls:
  2172 ;;		_NRF_SPI
  2173 ;; This function is called by:
  2174 ;;		_check_and_read_data
  2175 ;;		_set_TX_mode
  2176 ;;		_set_RX_mode
  2177 ;; This function uses a non-reentrant model
  2178 ;;
  2179                           
  2180  0161                     _NRF_ReadRegister:	
  2181                           ;psect for function _NRF_ReadRegister
  2182                           
  2183                           
  2184                           ;incstack = 0
  2185                           ; Regs used in _NRF_ReadRegister: [wreg+status,2+status,0+pclath+cstack]
  2186                           ;NRF_ReadRegister@reg stored from wreg
  2187  0161  00F3               	movwf	NRF_ReadRegister@reg
  2188  0162                     l1309:
  2189                           
  2190                           ;main.c: 178:     LATAbits.LATA4 = 0;
  2191  0162  0022               	movlb	2	; select bank2
  2192  0163  120C               	bcf	12,4	;volatile
  2193  0164                     l1311:
  2194                           
  2195                           ;main.c: 179:     NRF_SPI(0x00 | (reg & 0x1F));
  2196  0164  0873               	movf	NRF_ReadRegister@reg,w
  2197  0165  391F               	andlw	31
  2198  0166  3181  21E6  3181   	fcall	_NRF_SPI
  2199  0169                     l1313:
  2200                           
  2201                           ;main.c: 180:     uint8_t result = NRF_SPI(0xFF);
  2202  0169  30FF               	movlw	255
  2203  016A  3181  21E6  3181   	fcall	_NRF_SPI
  2204  016D  00F2               	movwf	??_NRF_ReadRegister
  2205  016E  0872               	movf	??_NRF_ReadRegister,w
  2206  016F  00F4               	movwf	NRF_ReadRegister@result
  2207  0170                     l1315:
  2208                           
  2209                           ;main.c: 181:     LATAbits.LATA4 = 1;
  2210  0170  0022               	movlb	2	; select bank2
  2211  0171  160C               	bsf	12,4	;volatile
  2212  0172                     l1317:
  2213                           
  2214                           ;main.c: 182:     return result;
  2215  0172  0874               	movf	NRF_ReadRegister@result,w
  2216  0173                     l270:
  2217  0173  0008               	return
  2218  0174                     __end_of_NRF_ReadRegister:
  2219                           
  2220                           	psect	text3
  2221  00E0                     __ptext3:	
  2222 ;; *************** function _NRF_ReadPayload *****************
  2223 ;; Defined at:
  2224 ;;		line 185 in file "main.c"
  2225 ;; Parameters:    Size  Location     Type
  2226 ;;  data            1    wreg     PTR unsigned char 
  2227 ;;		 -> check_and_read_data@payload(1), 
  2228 ;;  len             1    2[COMMON] unsigned char 
  2229 ;; Auto vars:     Size  Location     Type
  2230 ;;  data            1    5[COMMON] PTR unsigned char 
  2231 ;;		 -> check_and_read_data@payload(1), 
  2232 ;;  i               1    6[COMMON] unsigned char 
  2233 ;; Return value:  Size  Location     Type
  2234 ;;                  1    wreg      void 
  2235 ;; Registers used:
  2236 ;;		wreg, fsr1l, fsr1h, status,2, status,0, pclath, cstack
  2237 ;; Tracked objects:
  2238 ;;		On entry : 0/0
  2239 ;;		On exit  : 0/0
  2240 ;;		Unchanged: 0/0
  2241 ;; Data sizes:     COMMON   BANK0   BANK1   BANK2
  2242 ;;      Params:         1       0       0       0
  2243 ;;      Locals:         2       0       0       0
  2244 ;;      Temps:          2       0       0       0
  2245 ;;      Totals:         5       0       0       0
  2246 ;;Total ram usage:        5 bytes
  2247 ;; Hardware stack levels used: 1
  2248 ;; Hardware stack levels required when called: 6
  2249 ;; This function calls:
  2250 ;;		_NRF_SPI
  2251 ;; This function is called by:
  2252 ;;		_check_and_read_data
  2253 ;; This function uses a non-reentrant model
  2254 ;;
  2255                           
  2256  00E0                     _NRF_ReadPayload:	
  2257                           ;psect for function _NRF_ReadPayload
  2258                           
  2259                           
  2260                           ;incstack = 0
  2261                           ; Regs used in _NRF_ReadPayload: [wreg+fsr1l+fsr1h+status,2+status,0+pclath+cstack]
  2262                           ;NRF_ReadPayload@data stored from wreg
  2263  00E0  00F5               	movwf	NRF_ReadPayload@data
  2264  00E1                     l1321:
  2265                           
  2266                           ;main.c: 186:     LATAbits.LATA4 = 0;
  2267  00E1  0022               	movlb	2	; select bank2
  2268  00E2  120C               	bcf	12,4	;volatile
  2269  00E3                     l1323:
  2270                           
  2271                           ;main.c: 187:     NRF_SPI(0x61);
  2272  00E3  3061               	movlw	97
  2273  00E4  3181  21E6  3180   	fcall	_NRF_SPI
  2274  00E7                     l1325:
  2275                           
  2276                           ;main.c: 188:     for (uint8_t i = 0; i < len; i++)
  2277  00E7  01F6               	clrf	NRF_ReadPayload@i
  2278  00E8  28FA               	goto	l1331
  2279  00E9                     l1327:
  2280                           
  2281                           ;main.c: 189:         data[i] = NRF_SPI(0xFF);
  2282  00E9  30FF               	movlw	255
  2283  00EA  3181  21E6  3180   	fcall	_NRF_SPI
  2284  00ED  00F3               	movwf	??_NRF_ReadPayload
  2285  00EE  0876               	movf	NRF_ReadPayload@i,w
  2286  00EF  0775               	addwf	NRF_ReadPayload@data,w
  2287  00F0  00F4               	movwf	??_NRF_ReadPayload+1
  2288  00F1  0874               	movf	??_NRF_ReadPayload+1,w
  2289  00F2  0086               	movwf	6
  2290  00F3  0187               	clrf	7
  2291  00F4  0873               	movf	??_NRF_ReadPayload,w
  2292  00F5  0081               	movwf	1
  2293  00F6                     l1329:
  2294  00F6  3001               	movlw	1
  2295  00F7  00F3               	movwf	??_NRF_ReadPayload
  2296  00F8  0873               	movf	??_NRF_ReadPayload,w
  2297  00F9  07F6               	addwf	NRF_ReadPayload@i,f
  2298  00FA                     l1331:
  2299  00FA  0872               	movf	NRF_ReadPayload@len,w
  2300  00FB  0276               	subwf	NRF_ReadPayload@i,w
  2301  00FC  1C03               	skipc
  2302  00FD  28FF               	goto	u231
  2303  00FE  2900               	goto	u230
  2304  00FF                     u231:
  2305  00FF  28E9               	goto	l1327
  2306  0100                     u230:
  2307  0100                     l275:
  2308                           
  2309                           ;main.c: 190:     LATAbits.LATA4 = 1;
  2310  0100  0022               	movlb	2	; select bank2
  2311  0101  160C               	bsf	12,4	;volatile
  2312                           
  2313                           ;main.c: 193:     LATAbits.LATA4 = 0;
  2314  0102  120C               	bcf	12,4	;volatile
  2315  0103                     l1333:
  2316                           
  2317                           ;main.c: 194:     NRF_SPI(0xE2);
  2318  0103  30E2               	movlw	226
  2319  0104  3181  21E6  3180   	fcall	_NRF_SPI
  2320  0107                     l1335:
  2321                           
  2322                           ;main.c: 195:     LATAbits.LATA4 = 1;
  2323  0107  0022               	movlb	2	; select bank2
  2324  0108  160C               	bsf	12,4	;volatile
  2325  0109                     l276:
  2326  0109  0008               	return
  2327  010A                     __end_of_NRF_ReadPayload:
  2328                           
  2329                           	psect	text4
  2330  0174                     __ptext4:	
  2331 ;; *************** function _SYSTEM_Initialize *****************
  2332 ;; Defined at:
  2333 ;;		line 50 in file "mcc_generated_files/mcc.c"
  2334 ;; Parameters:    Size  Location     Type
  2335 ;;		None
  2336 ;; Auto vars:     Size  Location     Type
  2337 ;;		None
  2338 ;; Return value:  Size  Location     Type
  2339 ;;                  1    wreg      void 
  2340 ;; Registers used:
  2341 ;;		wreg, status,2, status,0, pclath, cstack
  2342 ;; Tracked objects:
  2343 ;;		On entry : 0/0
  2344 ;;		On exit  : 0/0
  2345 ;;		Unchanged: 0/0
  2346 ;; Data sizes:     COMMON   BANK0   BANK1   BANK2
  2347 ;;      Params:         0       0       0       0
  2348 ;;      Locals:         0       0       0       0
  2349 ;;      Temps:          0       0       0       0
  2350 ;;      Totals:         0       0       0       0
  2351 ;;Total ram usage:        0 bytes
  2352 ;; Hardware stack levels used: 1
  2353 ;; Hardware stack levels required when called: 6
  2354 ;; This function calls:
  2355 ;;		_OSCILLATOR_Initialize
  2356 ;;		_PIN_MANAGER_Initialize
  2357 ;;		_PMD_Initialize
  2358 ;;		_SPI1_Initialize
  2359 ;;		_WDT_Initialize
  2360 ;; This function is called by:
  2361 ;;		_main
  2362 ;; This function uses a non-reentrant model
  2363 ;;
  2364                           
  2365  0174                     _SYSTEM_Initialize:	
  2366                           ;psect for function _SYSTEM_Initialize
  2367                           
  2368  0174                     l1345:	
  2369                           ;incstack = 0
  2370                           ; Regs used in _SYSTEM_Initialize: [wreg+status,2+status,0+pclath+cstack]
  2371                           
  2372                           
  2373                           ;mcc_generated_files/mcc.c: 53:     PMD_Initialize();
  2374  0174  3181  21CC  3181   	fcall	_PMD_Initialize
  2375  0177                     l1347:
  2376                           
  2377                           ;mcc_generated_files/mcc.c: 54:     SPI1_Initialize();
  2378  0177  3181  212C  3181   	fcall	_SPI1_Initialize
  2379  017A                     l1349:
  2380                           
  2381                           ;mcc_generated_files/mcc.c: 55:     PIN_MANAGER_Initialize();
  2382  017A  3180  2080  3181   	fcall	_PIN_MANAGER_Initialize
  2383  017D                     l1351:
  2384                           
  2385                           ;mcc_generated_files/mcc.c: 56:     OSCILLATOR_Initialize();
  2386  017D  3181  21BA  3181   	fcall	_OSCILLATOR_Initialize
  2387  0180                     l1353:
  2388                           
  2389                           ;mcc_generated_files/mcc.c: 57:     WDT_Initialize();
  2390  0180  3181  21F0  3181   	fcall	_WDT_Initialize
  2391  0183                     l124:
  2392  0183  0008               	return
  2393  0184                     __end_of_SYSTEM_Initialize:
  2394                           
  2395                           	psect	text5
  2396  01F0                     __ptext5:	
  2397 ;; *************** function _WDT_Initialize *****************
  2398 ;; Defined at:
  2399 ;;		line 74 in file "mcc_generated_files/mcc.c"
  2400 ;; Parameters:    Size  Location     Type
  2401 ;;		None
  2402 ;; Auto vars:     Size  Location     Type
  2403 ;;		None
  2404 ;; Return value:  Size  Location     Type
  2405 ;;                  1    wreg      void 
  2406 ;; Registers used:
  2407 ;;		wreg
  2408 ;; Tracked objects:
  2409 ;;		On entry : 0/0
  2410 ;;		On exit  : 0/0
  2411 ;;		Unchanged: 0/0
  2412 ;; Data sizes:     COMMON   BANK0   BANK1   BANK2
  2413 ;;      Params:         0       0       0       0
  2414 ;;      Locals:         0       0       0       0
  2415 ;;      Temps:          0       0       0       0
  2416 ;;      Totals:         0       0       0       0
  2417 ;;Total ram usage:        0 bytes
  2418 ;; Hardware stack levels used: 1
  2419 ;; Hardware stack levels required when called: 4
  2420 ;; This function calls:
  2421 ;;		Nothing
  2422 ;; This function is called by:
  2423 ;;		_SYSTEM_Initialize
  2424 ;; This function uses a non-reentrant model
  2425 ;;
  2426                           
  2427  01F0                     _WDT_Initialize:	
  2428                           ;psect for function _WDT_Initialize
  2429                           
  2430  01F0                     l975:	
  2431                           ;incstack = 0
  2432                           ; Regs used in _WDT_Initialize: [wreg]
  2433                           
  2434                           
  2435                           ;mcc_generated_files/mcc.c: 77:     WDTCON = 0x16;
  2436  01F0  3016               	movlw	22
  2437  01F1  0021               	movlb	1	; select bank1
  2438  01F2  0097               	movwf	23	;volatile
  2439  01F3                     l130:
  2440  01F3  0008               	return
  2441  01F4                     __end_of_WDT_Initialize:
  2442                           
  2443                           	psect	text6
  2444  012C                     __ptext6:	
  2445 ;; *************** function _SPI1_Initialize *****************
  2446 ;; Defined at:
  2447 ;;		line 62 in file "mcc_generated_files/spi1.c"
  2448 ;; Parameters:    Size  Location     Type
  2449 ;;		None
  2450 ;; Auto vars:     Size  Location     Type
  2451 ;;		None
  2452 ;; Return value:  Size  Location     Type
  2453 ;;                  1    wreg      void 
  2454 ;; Registers used:
  2455 ;;		wreg, status,2, status,0, pclath, cstack
  2456 ;; Tracked objects:
  2457 ;;		On entry : 0/0
  2458 ;;		On exit  : 0/0
  2459 ;;		Unchanged: 0/0
  2460 ;; Data sizes:     COMMON   BANK0   BANK1   BANK2
  2461 ;;      Params:         0       0       0       0
  2462 ;;      Locals:         0       0       0       0
  2463 ;;      Temps:          0       0       0       0
  2464 ;;      Totals:         0       0       0       0
  2465 ;;Total ram usage:        0 bytes
  2466 ;; Hardware stack levels used: 1
  2467 ;; Hardware stack levels required when called: 5
  2468 ;; This function calls:
  2469 ;;		_SPI1_SetInterruptHandler
  2470 ;; This function is called by:
  2471 ;;		_SYSTEM_Initialize
  2472 ;; This function uses a non-reentrant model
  2473 ;;
  2474                           
  2475  012C                     _SPI1_Initialize:	
  2476                           ;psect for function _SPI1_Initialize
  2477                           
  2478  012C                     l1239:	
  2479                           ;incstack = 0
  2480                           ; Regs used in _SPI1_Initialize: [wreg+status,2+status,0+pclath+cstack]
  2481                           
  2482                           
  2483                           ;mcc_generated_files/spi1.c: 65:     SSP1CLKPPS = 16;
  2484  012C  3010               	movlw	16
  2485  012D  003C               	movlb	28	; select bank28
  2486  012E  00A0               	movwf	32	;volatile
  2487                           
  2488                           ;mcc_generated_files/spi1.c: 66:     SSP1DATPPS = 17;
  2489  012F  3011               	movlw	17
  2490  0130  00A1               	movwf	33	;volatile
  2491                           
  2492                           ;mcc_generated_files/spi1.c: 67:     RC0PPS = 24;
  2493  0131  3018               	movlw	24
  2494  0132  003D               	movlb	29	; select bank29
  2495  0133  00A0               	movwf	32	;volatile
  2496                           
  2497                           ;mcc_generated_files/spi1.c: 68:     RC2PPS = 25;
  2498  0134  3019               	movlw	25
  2499  0135  00A2               	movwf	34	;volatile
  2500                           
  2501                           ;mcc_generated_files/spi1.c: 70:     SSP1STAT = 0xC0;
  2502  0136  30C0               	movlw	192
  2503  0137  0024               	movlb	4	; select bank4
  2504  0138  0094               	movwf	20	;volatile
  2505  0139                     l1241:
  2506                           
  2507                           ;mcc_generated_files/spi1.c: 71:     SSP1CON1 = 0x00;
  2508  0139  0195               	clrf	21	;volatile
  2509  013A                     l1243:
  2510                           
  2511                           ;mcc_generated_files/spi1.c: 72:     SSP1ADD = 0x01;
  2512  013A  3001               	movlw	1
  2513  013B  0092               	movwf	18	;volatile
  2514  013C                     l1245:
  2515                           
  2516                           ;mcc_generated_files/spi1.c: 73:     PIE1bits.SSP1IE = 1;
  2517  013C  0021               	movlb	1	; select bank1
  2518  013D  1591               	bsf	17,3	;volatile
  2519  013E                     l1247:
  2520                           
  2521                           ;mcc_generated_files/spi1.c: 74:     SPI1_SetInterruptHandler(SPI1_Isr);
  2522  013E  3000               	movlw	0
  2523  013F  00F0               	movwf	SPI1_SetInterruptHandler@handler
  2524  0140  3000               	movlw	0
  2525  0141  00F1               	movwf	SPI1_SetInterruptHandler@handler+1
  2526  0142  3181  21DA  3181   	fcall	_SPI1_SetInterruptHandler
  2527  0145                     l1249:
  2528                           
  2529                           ;mcc_generated_files/spi1.c: 75:     TRISCbits.TRISC0 = 1;
  2530  0145  0021               	movlb	1	; select bank1
  2531  0146  140E               	bsf	14,0	;volatile
  2532  0147                     l1251:
  2533                           
  2534                           ;mcc_generated_files/spi1.c: 76:     SSP1CON1bits.SSPEN = 1;
  2535  0147  0024               	movlb	4	; select bank4
  2536  0148  1695               	bsf	21,5	;volatile
  2537  0149                     l37:
  2538  0149  0008               	return
  2539  014A                     __end_of_SPI1_Initialize:
  2540                           
  2541                           	psect	text7
  2542  01DA                     __ptext7:	
  2543 ;; *************** function _SPI1_SetInterruptHandler *****************
  2544 ;; Defined at:
  2545 ;;		line 158 in file "mcc_generated_files/spi1.c"
  2546 ;; Parameters:    Size  Location     Type
  2547 ;;  handler         2    0[COMMON] PTR FTN()void 
  2548 ;;		 -> SPI1_Isr(1), 
  2549 ;; Auto vars:     Size  Location     Type
  2550 ;;		None
  2551 ;; Return value:  Size  Location     Type
  2552 ;;                  1    wreg      void 
  2553 ;; Registers used:
  2554 ;;		wreg
  2555 ;; Tracked objects:
  2556 ;;		On entry : 0/0
  2557 ;;		On exit  : 0/0
  2558 ;;		Unchanged: 0/0
  2559 ;; Data sizes:     COMMON   BANK0   BANK1   BANK2
  2560 ;;      Params:         2       0       0       0
  2561 ;;      Locals:         0       0       0       0
  2562 ;;      Temps:          0       0       0       0
  2563 ;;      Totals:         2       0       0       0
  2564 ;;Total ram usage:        2 bytes
  2565 ;; Hardware stack levels used: 1
  2566 ;; Hardware stack levels required when called: 4
  2567 ;; This function calls:
  2568 ;;		Nothing
  2569 ;; This function is called by:
  2570 ;;		_SPI1_Initialize
  2571 ;; This function uses a non-reentrant model
  2572 ;;
  2573                           
  2574  01DA                     _SPI1_SetInterruptHandler:	
  2575                           ;psect for function _SPI1_SetInterruptHandler
  2576                           
  2577  01DA                     l1231:	
  2578                           ;incstack = 0
  2579                           ; Regs used in _SPI1_SetInterruptHandler: [wreg]
  2580                           
  2581                           
  2582                           ;mcc_generated_files/spi1.c: 158: void SPI1_SetInterruptHandler(spi1InterruptHandler_t h
      +                          andler);mcc_generated_files/spi1.c: 159: {;mcc_generated_files/spi1.c: 160:     MSSP1_In
      +                          terruptHandler = handler;
  2583  01DA  0871               	movf	SPI1_SetInterruptHandler@handler+1,w
  2584  01DB  0020               	movlb	0	; select bank0
  2585  01DC  00AD               	movwf	_MSSP1_InterruptHandler+1
  2586  01DD  0870               	movf	SPI1_SetInterruptHandler@handler,w
  2587  01DE  00AC               	movwf	_MSSP1_InterruptHandler
  2588  01DF                     l85:
  2589  01DF  0008               	return
  2590  01E0                     __end_of_SPI1_SetInterruptHandler:
  2591                           
  2592                           	psect	text8
  2593  01CC                     __ptext8:	
  2594 ;; *************** function _PMD_Initialize *****************
  2595 ;; Defined at:
  2596 ;;		line 80 in file "mcc_generated_files/mcc.c"
  2597 ;; Parameters:    Size  Location     Type
  2598 ;;		None
  2599 ;; Auto vars:     Size  Location     Type
  2600 ;;		None
  2601 ;; Return value:  Size  Location     Type
  2602 ;;                  1    wreg      void 
  2603 ;; Registers used:
  2604 ;;		status,2
  2605 ;; Tracked objects:
  2606 ;;		On entry : 0/0
  2607 ;;		On exit  : 0/0
  2608 ;;		Unchanged: 0/0
  2609 ;; Data sizes:     COMMON   BANK0   BANK1   BANK2
  2610 ;;      Params:         0       0       0       0
  2611 ;;      Locals:         0       0       0       0
  2612 ;;      Temps:          0       0       0       0
  2613 ;;      Totals:         0       0       0       0
  2614 ;;Total ram usage:        0 bytes
  2615 ;; Hardware stack levels used: 1
  2616 ;; Hardware stack levels required when called: 4
  2617 ;; This function calls:
  2618 ;;		Nothing
  2619 ;; This function is called by:
  2620 ;;		_SYSTEM_Initialize
  2621 ;; This function uses a non-reentrant model
  2622 ;;
  2623                           
  2624  01CC                     _PMD_Initialize:	
  2625                           ;psect for function _PMD_Initialize
  2626                           
  2627  01CC                     l933:	
  2628                           ;incstack = 0
  2629                           ; Regs used in _PMD_Initialize: [status,2]
  2630                           
  2631                           
  2632                           ;mcc_generated_files/mcc.c: 83:     PMD0 = 0x00;
  2633  01CC  0032               	movlb	18	; select bank18
  2634  01CD  0191               	clrf	17	;volatile
  2635                           
  2636                           ;mcc_generated_files/mcc.c: 85:     PMD1 = 0x00;
  2637  01CE  0192               	clrf	18	;volatile
  2638                           
  2639                           ;mcc_generated_files/mcc.c: 87:     PMD2 = 0x00;
  2640  01CF  0193               	clrf	19	;volatile
  2641                           
  2642                           ;mcc_generated_files/mcc.c: 89:     PMD3 = 0x00;
  2643  01D0  0194               	clrf	20	;volatile
  2644                           
  2645                           ;mcc_generated_files/mcc.c: 91:     PMD4 = 0x00;
  2646  01D1  0195               	clrf	21	;volatile
  2647                           
  2648                           ;mcc_generated_files/mcc.c: 93:     PMD5 = 0x00;
  2649  01D2  0196               	clrf	22	;volatile
  2650  01D3                     l133:
  2651  01D3  0008               	return
  2652  01D4                     __end_of_PMD_Initialize:
  2653                           
  2654                           	psect	text9
  2655  0080                     __ptext9:	
  2656 ;; *************** function _PIN_MANAGER_Initialize *****************
  2657 ;; Defined at:
  2658 ;;		line 57 in file "mcc_generated_files/pin_manager.c"
  2659 ;; Parameters:    Size  Location     Type
  2660 ;;		None
  2661 ;; Auto vars:     Size  Location     Type
  2662 ;;		None
  2663 ;; Return value:  Size  Location     Type
  2664 ;;                  1    wreg      void 
  2665 ;; Registers used:
  2666 ;;		wreg, status,2, status,0, pclath, cstack
  2667 ;; Tracked objects:
  2668 ;;		On entry : 0/0
  2669 ;;		On exit  : 0/0
  2670 ;;		Unchanged: 0/0
  2671 ;; Data sizes:     COMMON   BANK0   BANK1   BANK2
  2672 ;;      Params:         0       0       0       0
  2673 ;;      Locals:         0       0       0       0
  2674 ;;      Temps:          0       0       0       0
  2675 ;;      Totals:         0       0       0       0
  2676 ;;Total ram usage:        0 bytes
  2677 ;; Hardware stack levels used: 1
  2678 ;; Hardware stack levels required when called: 5
  2679 ;; This function calls:
  2680 ;;		_IOCAF5_SetInterruptHandler
  2681 ;; This function is called by:
  2682 ;;		_SYSTEM_Initialize
  2683 ;; This function uses a non-reentrant model
  2684 ;;
  2685                           
  2686  0080                     _PIN_MANAGER_Initialize:	
  2687                           ;psect for function _PIN_MANAGER_Initialize
  2688                           
  2689  0080                     l1253:	
  2690                           ;incstack = 0
  2691                           ; Regs used in _PIN_MANAGER_Initialize: [wreg+status,2+status,0+pclath+cstack]
  2692                           
  2693                           
  2694                           ;mcc_generated_files/pin_manager.c: 62:     LATA = 0x00;
  2695  0080  0022               	movlb	2	; select bank2
  2696  0081  018C               	clrf	12	;volatile
  2697                           
  2698                           ;mcc_generated_files/pin_manager.c: 63:     LATC = 0x00;
  2699  0082  018E               	clrf	14	;volatile
  2700  0083                     l1255:
  2701                           
  2702                           ;mcc_generated_files/pin_manager.c: 68:     TRISA = 0x23;
  2703  0083  3023               	movlw	35
  2704  0084  0021               	movlb	1	; select bank1
  2705  0085  008C               	movwf	12	;volatile
  2706  0086                     l1257:
  2707                           
  2708                           ;mcc_generated_files/pin_manager.c: 69:     TRISC = 0x2A;
  2709  0086  302A               	movlw	42
  2710  0087  008E               	movwf	14	;volatile
  2711                           
  2712                           ;mcc_generated_files/pin_manager.c: 74:     ANSELC = 0x00;
  2713  0088  0023               	movlb	3	; select bank3
  2714  0089  018E               	clrf	14	;volatile
  2715                           
  2716                           ;mcc_generated_files/pin_manager.c: 75:     ANSELA = 0x00;
  2717  008A  018C               	clrf	12	;volatile
  2718                           
  2719                           ;mcc_generated_files/pin_manager.c: 80:     WPUA = 0x00;
  2720  008B  0024               	movlb	4	; select bank4
  2721  008C  018C               	clrf	12	;volatile
  2722                           
  2723                           ;mcc_generated_files/pin_manager.c: 81:     WPUC = 0x00;
  2724  008D  018E               	clrf	14	;volatile
  2725                           
  2726                           ;mcc_generated_files/pin_manager.c: 86:     ODCONA = 0x00;
  2727  008E  0025               	movlb	5	; select bank5
  2728  008F  018C               	clrf	12	;volatile
  2729                           
  2730                           ;mcc_generated_files/pin_manager.c: 87:     ODCONC = 0x00;
  2731  0090  018E               	clrf	14	;volatile
  2732  0091                     l1259:
  2733                           
  2734                           ;mcc_generated_files/pin_manager.c: 92:     SLRCONA = 0x37;
  2735  0091  3037               	movlw	55
  2736  0092  0026               	movlb	6	; select bank6
  2737  0093  008C               	movwf	12	;volatile
  2738  0094                     l1261:
  2739                           
  2740                           ;mcc_generated_files/pin_manager.c: 93:     SLRCONC = 0x3F;
  2741  0094  303F               	movlw	63
  2742  0095  008E               	movwf	14	;volatile
  2743  0096                     l1263:
  2744                           
  2745                           ;mcc_generated_files/pin_manager.c: 98:     INLVLA = 0x3F;
  2746  0096  303F               	movlw	63
  2747  0097  0027               	movlb	7	; select bank7
  2748  0098  008C               	movwf	12	;volatile
  2749  0099                     l1265:
  2750                           
  2751                           ;mcc_generated_files/pin_manager.c: 99:     INLVLC = 0x3F;
  2752  0099  303F               	movlw	63
  2753  009A  008E               	movwf	14	;volatile
  2754  009B                     l1267:
  2755                           
  2756                           ;mcc_generated_files/pin_manager.c: 106:     IOCAFbits.IOCAF5 = 0;
  2757  009B  1293               	bcf	19,5	;volatile
  2758  009C                     l1269:
  2759                           
  2760                           ;mcc_generated_files/pin_manager.c: 108:     IOCANbits.IOCAN5 = 1;
  2761  009C  1692               	bsf	18,5	;volatile
  2762  009D                     l1271:
  2763                           
  2764                           ;mcc_generated_files/pin_manager.c: 110:     IOCAPbits.IOCAP5 = 0;
  2765  009D  1291               	bcf	17,5	;volatile
  2766  009E                     l1273:
  2767                           
  2768                           ;mcc_generated_files/pin_manager.c: 115:     IOCAF5_SetInterruptHandler(IOCAF5_DefaultIn
      +                          terruptHandler);
  2769  009E  30F4               	movlw	low _IOCAF5_DefaultInterruptHandler
  2770  009F  00F0               	movwf	IOCAF5_SetInterruptHandler@InterruptHandler
  2771  00A0  3001               	movlw	high _IOCAF5_DefaultInterruptHandler
  2772  00A1  00F1               	movwf	IOCAF5_SetInterruptHandler@InterruptHandler+1
  2773  00A2  3181  21E0  3180   	fcall	_IOCAF5_SetInterruptHandler
  2774  00A5                     l1275:
  2775                           
  2776                           ;mcc_generated_files/pin_manager.c: 118:     PIE0bits.IOCIE = 1;
  2777  00A5  0021               	movlb	1	; select bank1
  2778  00A6  1610               	bsf	16,4	;volatile
  2779  00A7                     l1277:
  2780                           
  2781                           ;mcc_generated_files/pin_manager.c: 121:     RC0PPS = 0x18;
  2782  00A7  3018               	movlw	24
  2783  00A8  003D               	movlb	29	; select bank29
  2784  00A9  00A0               	movwf	32	;volatile
  2785  00AA                     l1279:
  2786                           
  2787                           ;mcc_generated_files/pin_manager.c: 122:     SSP1CLKPPS = 0x10;
  2788  00AA  3010               	movlw	16
  2789  00AB  003C               	movlb	28	; select bank28
  2790  00AC  00A0               	movwf	32	;volatile
  2791  00AD                     l1281:
  2792                           
  2793                           ;mcc_generated_files/pin_manager.c: 123:     RC2PPS = 0x19;
  2794  00AD  3019               	movlw	25
  2795  00AE  003D               	movlb	29	; select bank29
  2796  00AF  00A2               	movwf	34	;volatile
  2797  00B0                     l1283:
  2798                           
  2799                           ;mcc_generated_files/pin_manager.c: 124:     SSP1DATPPS = 0x11;
  2800  00B0  3011               	movlw	17
  2801  00B1  003C               	movlb	28	; select bank28
  2802  00B2  00A1               	movwf	33	;volatile
  2803  00B3                     l203:
  2804  00B3  0008               	return
  2805  00B4                     __end_of_PIN_MANAGER_Initialize:
  2806                           
  2807                           	psect	text10
  2808  01E0                     __ptext10:	
  2809 ;; *************** function _IOCAF5_SetInterruptHandler *****************
  2810 ;; Defined at:
  2811 ;;		line 154 in file "mcc_generated_files/pin_manager.c"
  2812 ;; Parameters:    Size  Location     Type
  2813 ;;  InterruptHan    2    0[COMMON] PTR FTN()void 
  2814 ;;		 -> IOCAF5_DefaultInterruptHandler(1), 
  2815 ;; Auto vars:     Size  Location     Type
  2816 ;;		None
  2817 ;; Return value:  Size  Location     Type
  2818 ;;                  1    wreg      void 
  2819 ;; Registers used:
  2820 ;;		wreg
  2821 ;; Tracked objects:
  2822 ;;		On entry : 0/0
  2823 ;;		On exit  : 0/0
  2824 ;;		Unchanged: 0/0
  2825 ;; Data sizes:     COMMON   BANK0   BANK1   BANK2
  2826 ;;      Params:         2       0       0       0
  2827 ;;      Locals:         0       0       0       0
  2828 ;;      Temps:          0       0       0       0
  2829 ;;      Totals:         2       0       0       0
  2830 ;;Total ram usage:        2 bytes
  2831 ;; Hardware stack levels used: 1
  2832 ;; Hardware stack levels required when called: 4
  2833 ;; This function calls:
  2834 ;;		Nothing
  2835 ;; This function is called by:
  2836 ;;		_PIN_MANAGER_Initialize
  2837 ;; This function uses a non-reentrant model
  2838 ;;
  2839                           
  2840  01E0                     _IOCAF5_SetInterruptHandler:	
  2841                           ;psect for function _IOCAF5_SetInterruptHandler
  2842                           
  2843  01E0                     l1233:	
  2844                           ;incstack = 0
  2845                           ; Regs used in _IOCAF5_SetInterruptHandler: [wreg]
  2846                           
  2847                           
  2848                           ;mcc_generated_files/pin_manager.c: 155:     IOCAF5_InterruptHandler = InterruptHandler;
  2849  01E0  0871               	movf	IOCAF5_SetInterruptHandler@InterruptHandler+1,w
  2850  01E1  0020               	movlb	0	; select bank0
  2851  01E2  00AB               	movwf	_IOCAF5_InterruptHandler+1
  2852  01E3  0870               	movf	IOCAF5_SetInterruptHandler@InterruptHandler,w
  2853  01E4  00AA               	movwf	_IOCAF5_InterruptHandler
  2854  01E5                     l214:
  2855  01E5  0008               	return
  2856  01E6                     __end_of_IOCAF5_SetInterruptHandler:
  2857                           
  2858                           	psect	text11
  2859  01BA                     __ptext11:	
  2860 ;; *************** function _OSCILLATOR_Initialize *****************
  2861 ;; Defined at:
  2862 ;;		line 60 in file "mcc_generated_files/mcc.c"
  2863 ;; Parameters:    Size  Location     Type
  2864 ;;		None
  2865 ;; Auto vars:     Size  Location     Type
  2866 ;;		None
  2867 ;; Return value:  Size  Location     Type
  2868 ;;                  1    wreg      void 
  2869 ;; Registers used:
  2870 ;;		wreg, status,2
  2871 ;; Tracked objects:
  2872 ;;		On entry : 0/0
  2873 ;;		On exit  : 0/0
  2874 ;;		Unchanged: 0/0
  2875 ;; Data sizes:     COMMON   BANK0   BANK1   BANK2
  2876 ;;      Params:         0       0       0       0
  2877 ;;      Locals:         0       0       0       0
  2878 ;;      Temps:          0       0       0       0
  2879 ;;      Totals:         0       0       0       0
  2880 ;;Total ram usage:        0 bytes
  2881 ;; Hardware stack levels used: 1
  2882 ;; Hardware stack levels required when called: 4
  2883 ;; This function calls:
  2884 ;;		Nothing
  2885 ;; This function is called by:
  2886 ;;		_SYSTEM_Initialize
  2887 ;; This function uses a non-reentrant model
  2888 ;;
  2889                           
  2890  01BA                     _OSCILLATOR_Initialize:	
  2891                           ;psect for function _OSCILLATOR_Initialize
  2892                           
  2893  01BA                     l967:	
  2894                           ;incstack = 0
  2895                           ; Regs used in _OSCILLATOR_Initialize: [wreg+status,2]
  2896                           
  2897                           
  2898                           ;mcc_generated_files/mcc.c: 63:     OSCCON1 = 0x62;
  2899  01BA  3062               	movlw	98
  2900  01BB  0032               	movlb	18	; select bank18
  2901  01BC  0099               	movwf	25	;volatile
  2902  01BD                     l969:
  2903                           
  2904                           ;mcc_generated_files/mcc.c: 65:     OSCCON3 = 0x00;
  2905  01BD  019B               	clrf	27	;volatile
  2906  01BE                     l971:
  2907                           
  2908                           ;mcc_generated_files/mcc.c: 67:     OSCEN = 0x00;
  2909  01BE  019D               	clrf	29	;volatile
  2910                           
  2911                           ;mcc_generated_files/mcc.c: 69:     OSCFRQ = 0x03;
  2912  01BF  3003               	movlw	3
  2913  01C0  009F               	movwf	31	;volatile
  2914  01C1                     l973:
  2915                           
  2916                           ;mcc_generated_files/mcc.c: 71:     OSCTUNE = 0x00;
  2917  01C1  019E               	clrf	30	;volatile
  2918  01C2                     l127:
  2919  01C2  0008               	return
  2920  01C3                     __end_of_OSCILLATOR_Initialize:
  2921                           
  2922                           	psect	text12
  2923  0025                     __ptext12:	
  2924 ;; *************** function _NRF_RX_Init *****************
  2925 ;; Defined at:
  2926 ;;		line 154 in file "main.c"
  2927 ;; Parameters:    Size  Location     Type
  2928 ;;		None
  2929 ;; Auto vars:     Size  Location     Type
  2930 ;;  rx_address      5    9[COMMON] unsigned char [5]
  2931 ;; Return value:  Size  Location     Type
  2932 ;;                  1    wreg      void 
  2933 ;; Registers used:
  2934 ;;		wreg, fsr0l, fsr0h, fsr1l, fsr1h, status,2, status,0, pclath, cstack
  2935 ;; Tracked objects:
  2936 ;;		On entry : 0/0
  2937 ;;		On exit  : 0/0
  2938 ;;		Unchanged: 0/0
  2939 ;; Data sizes:     COMMON   BANK0   BANK1   BANK2
  2940 ;;      Params:         0       0       0       0
  2941 ;;      Locals:         5       0       0       0
  2942 ;;      Temps:          2       0       0       0
  2943 ;;      Totals:         7       0       0       0
  2944 ;;Total ram usage:        7 bytes
  2945 ;; Hardware stack levels used: 1
  2946 ;; Hardware stack levels required when called: 7
  2947 ;; This function calls:
  2948 ;;		_NRF_WriteRegister
  2949 ;;		_NRF_WriteRegisterMulti
  2950 ;; This function is called by:
  2951 ;;		_main
  2952 ;; This function uses a non-reentrant model
  2953 ;;
  2954                           
  2955  0025                     _NRF_RX_Init:	
  2956                           ;psect for function _NRF_RX_Init
  2957                           
  2958  0025                     l1359:	
  2959                           ;incstack = 0
  2960                           ; Regs used in _NRF_RX_Init: [wreg-fsr1h+status,2+status,0+pclath+cstack]
  2961                           
  2962                           
  2963                           ;main.c: 155:     _delay((unsigned long)((100)*(1000000/4000.0)));
  2964  0025  3021               	movlw	33
  2965  0026  00F7               	movwf	??_NRF_RX_Init
  2966  0027  3076               	movlw	118
  2967  0028                     u387:
  2968  0028  0B89               	decfsz	9,f
  2969  0029  2828               	goto	u387
  2970  002A  0BF7               	decfsz	??_NRF_RX_Init,f
  2971  002B  2828               	goto	u387
  2972  002C  3200               	nop2
  2973  002D                     l1361:
  2974                           
  2975                           ;main.c: 156:     uint8_t rx_address[5] = {'A', 'A', 'A', 'A', 'A'};
  2976  002D  3020               	movlw	low NRF_RX_Init@F5222
  2977  002E  0086               	movwf	6
  2978  002F  3000               	movlw	high NRF_RX_Init@F5222
  2979  0030  0087               	movwf	7
  2980  0031  3079               	movlw	low NRF_RX_Init@rx_address
  2981  0032  0084               	movwf	4
  2982  0033  3000               	movlw	high NRF_RX_Init@rx_address
  2983  0034  0085               	movwf	5
  2984  0035  3005               	movlw	5
  2985  0036  00F7               	movwf	??_NRF_RX_Init
  2986  0037                     u270:
  2987  0037  0016               	moviw fsr1++
  2988  0038  001A               	movwi fsr0++
  2989  0039  0BF7               	decfsz	??_NRF_RX_Init,f
  2990  003A  2837               	goto	u270
  2991  003B                     l1363:
  2992                           
  2993                           ;main.c: 158:     LATCbits.LATC5 = 0;
  2994  003B  0022               	movlb	2	; select bank2
  2995  003C  128E               	bcf	14,5	;volatile
  2996  003D                     l1365:
  2997                           
  2998                           ;main.c: 160:     NRF_WriteRegister(0x00, 0x0B);
  2999  003D  300B               	movlw	11
  3000  003E  00F7               	movwf	??_NRF_RX_Init
  3001  003F  0877               	movf	??_NRF_RX_Init,w
  3002  0040  00F2               	movwf	NRF_WriteRegister@value
  3003  0041  3000               	movlw	0
  3004  0042  3181  2184  3180   	fcall	_NRF_WriteRegister
  3005  0045                     l1367:
  3006                           
  3007                           ;main.c: 161:     NRF_WriteRegister(0x01, 0x01);
  3008  0045  01F2               	clrf	NRF_WriteRegister@value
  3009  0046  0AF2               	incf	NRF_WriteRegister@value,f
  3010  0047  3001               	movlw	1
  3011  0048  3181  2184  3180   	fcall	_NRF_WriteRegister
  3012  004B                     l1369:
  3013                           
  3014                           ;main.c: 162:     NRF_WriteRegister(0x05, 0x02);
  3015  004B  3002               	movlw	2
  3016  004C  00F7               	movwf	??_NRF_RX_Init
  3017  004D  0877               	movf	??_NRF_RX_Init,w
  3018  004E  00F2               	movwf	NRF_WriteRegister@value
  3019  004F  3005               	movlw	5
  3020  0050  3181  2184  3180   	fcall	_NRF_WriteRegister
  3021  0053                     l1371:
  3022                           
  3023                           ;main.c: 163:     NRF_WriteRegister(0x06, 0x06);
  3024  0053  3006               	movlw	6
  3025  0054  00F7               	movwf	??_NRF_RX_Init
  3026  0055  0877               	movf	??_NRF_RX_Init,w
  3027  0056  00F2               	movwf	NRF_WriteRegister@value
  3028  0057  3006               	movlw	6
  3029  0058  3181  2184  3180   	fcall	_NRF_WriteRegister
  3030  005B                     l1373:
  3031                           
  3032                           ;main.c: 164:     NRF_WriteRegister(0x03, 0x03);
  3033  005B  3003               	movlw	3
  3034  005C  00F7               	movwf	??_NRF_RX_Init
  3035  005D  0877               	movf	??_NRF_RX_Init,w
  3036  005E  00F2               	movwf	NRF_WriteRegister@value
  3037  005F  3003               	movlw	3
  3038  0060  3181  2184  3180   	fcall	_NRF_WriteRegister
  3039  0063                     l1375:
  3040                           
  3041                           ;main.c: 165:     NRF_WriteRegister(0x11, 1);
  3042  0063  01F2               	clrf	NRF_WriteRegister@value
  3043  0064  0AF2               	incf	NRF_WriteRegister@value,f
  3044  0065  3011               	movlw	17
  3045  0066  3181  2184  3180   	fcall	_NRF_WriteRegister
  3046  0069                     l1377:
  3047                           
  3048                           ;main.c: 166:     NRF_WriteRegisterMulti(0x0A, rx_address, 5);
  3049  0069  3079               	movlw	(low (NRF_RX_Init@rx_address| 0))& (0+255)
  3050  006A  00F7               	movwf	??_NRF_RX_Init
  3051  006B  0877               	movf	??_NRF_RX_Init,w
  3052  006C  00F2               	movwf	NRF_WriteRegisterMulti@data
  3053  006D  3005               	movlw	5
  3054  006E  00F8               	movwf	??_NRF_RX_Init+1
  3055  006F  0878               	movf	??_NRF_RX_Init+1,w
  3056  0070  00F3               	movwf	NRF_WriteRegisterMulti@len
  3057  0071  300A               	movlw	10
  3058  0072  3181  210A  3180   	fcall	_NRF_WriteRegisterMulti
  3059  0075                     l1379:
  3060                           
  3061                           ;main.c: 170: NRF_WriteRegister(0x07, 0x70);
  3062  0075  3070               	movlw	112
  3063  0076  00F7               	movwf	??_NRF_RX_Init
  3064  0077  0877               	movf	??_NRF_RX_Init,w
  3065  0078  00F2               	movwf	NRF_WriteRegister@value
  3066  0079  3007               	movlw	7
  3067  007A  3181  2184  3180   	fcall	_NRF_WriteRegister
  3068  007D                     l1381:
  3069                           
  3070                           ;main.c: 171:     LATCbits.LATC5 = 1;
  3071  007D  0022               	movlb	2	; select bank2
  3072  007E  168E               	bsf	14,5	;volatile
  3073  007F                     l267:
  3074  007F  0008               	return
  3075  0080                     __end_of_NRF_RX_Init:
  3076                           
  3077                           	psect	text13
  3078  010A                     __ptext13:	
  3079 ;; *************** function _NRF_WriteRegisterMulti *****************
  3080 ;; Defined at:
  3081 ;;		line 88 in file "main.c"
  3082 ;; Parameters:    Size  Location     Type
  3083 ;;  reg             1    wreg     unsigned char 
  3084 ;;  data            1    2[COMMON] PTR unsigned char 
  3085 ;;		 -> NRF_RX_Init@rx_address(5), NRF_TX_Init@tx_address(5), 
  3086 ;;  len             1    3[COMMON] unsigned char 
  3087 ;; Auto vars:     Size  Location     Type
  3088 ;;  reg             1    5[COMMON] unsigned char 
  3089 ;;  i               1    6[COMMON] unsigned char 
  3090 ;; Return value:  Size  Location     Type
  3091 ;;                  1    wreg      void 
  3092 ;; Registers used:
  3093 ;;		wreg, fsr1l, fsr1h, status,2, status,0, pclath, cstack
  3094 ;; Tracked objects:
  3095 ;;		On entry : 0/0
  3096 ;;		On exit  : 0/0
  3097 ;;		Unchanged: 0/0
  3098 ;; Data sizes:     COMMON   BANK0   BANK1   BANK2
  3099 ;;      Params:         2       0       0       0
  3100 ;;      Locals:         2       0       0       0
  3101 ;;      Temps:          1       0       0       0
  3102 ;;      Totals:         5       0       0       0
  3103 ;;Total ram usage:        5 bytes
  3104 ;; Hardware stack levels used: 1
  3105 ;; Hardware stack levels required when called: 6
  3106 ;; This function calls:
  3107 ;;		_NRF_SPI
  3108 ;; This function is called by:
  3109 ;;		_NRF_RX_Init
  3110 ;;		_NRF_TX_Init
  3111 ;; This function uses a non-reentrant model
  3112 ;;
  3113                           
  3114  010A                     _NRF_WriteRegisterMulti:	
  3115                           ;psect for function _NRF_WriteRegisterMulti
  3116                           
  3117                           
  3118                           ;incstack = 0
  3119                           ; Regs used in _NRF_WriteRegisterMulti: [wreg+fsr1l+fsr1h+status,2+status,0+pclath+cstac
      +                          k]
  3120                           ;NRF_WriteRegisterMulti@reg stored from wreg
  3121  010A  00F5               	movwf	NRF_WriteRegisterMulti@reg
  3122  010B                     l1297:
  3123                           
  3124                           ;main.c: 89:     LATAbits.LATA4 = 0;
  3125  010B  0022               	movlb	2	; select bank2
  3126  010C  120C               	bcf	12,4	;volatile
  3127  010D                     l1299:
  3128                           
  3129                           ;main.c: 90:     NRF_SPI(0x20 | (reg & 0x1F));
  3130  010D  0875               	movf	NRF_WriteRegisterMulti@reg,w
  3131  010E  391F               	andlw	31
  3132  010F  3820               	iorlw	32
  3133  0110  3181  21E6  3181   	fcall	_NRF_SPI
  3134  0113                     l1301:
  3135                           
  3136                           ;main.c: 91:     for (uint8_t i = 0; i < len; i++)
  3137  0113  01F6               	clrf	NRF_WriteRegisterMulti@i
  3138  0114  2923               	goto	l1307
  3139  0115                     l1303:
  3140                           
  3141                           ;main.c: 92:         NRF_SPI(data[i]);
  3142  0115  0876               	movf	NRF_WriteRegisterMulti@i,w
  3143  0116  0772               	addwf	NRF_WriteRegisterMulti@data,w
  3144  0117  00F4               	movwf	??_NRF_WriteRegisterMulti
  3145  0118  0874               	movf	??_NRF_WriteRegisterMulti,w
  3146  0119  0086               	movwf	6
  3147  011A  0187               	clrf	7
  3148  011B  0801               	movf	1,w
  3149  011C  3181  21E6  3181   	fcall	_NRF_SPI
  3150  011F                     l1305:
  3151  011F  3001               	movlw	1
  3152  0120  00F4               	movwf	??_NRF_WriteRegisterMulti
  3153  0121  0874               	movf	??_NRF_WriteRegisterMulti,w
  3154  0122  07F6               	addwf	NRF_WriteRegisterMulti@i,f
  3155  0123                     l1307:
  3156  0123  0873               	movf	NRF_WriteRegisterMulti@len,w
  3157  0124  0276               	subwf	NRF_WriteRegisterMulti@i,w
  3158  0125  1C03               	skipc
  3159  0126  2928               	goto	u221
  3160  0127  2929               	goto	u220
  3161  0128                     u221:
  3162  0128  2915               	goto	l1303
  3163  0129                     u220:
  3164  0129                     l244:
  3165                           
  3166                           ;main.c: 93:     LATAbits.LATA4 = 1;
  3167  0129  0022               	movlb	2	; select bank2
  3168  012A  160C               	bsf	12,4	;volatile
  3169  012B                     l245:
  3170  012B  0008               	return
  3171  012C                     __end_of_NRF_WriteRegisterMulti:
  3172                           
  3173                           	psect	text14
  3174  0184                     __ptext14:	
  3175 ;; *************** function _NRF_WriteRegister *****************
  3176 ;; Defined at:
  3177 ;;		line 80 in file "main.c"
  3178 ;; Parameters:    Size  Location     Type
  3179 ;;  reg             1    wreg     unsigned char 
  3180 ;;  value           1    2[COMMON] unsigned char 
  3181 ;; Auto vars:     Size  Location     Type
  3182 ;;  reg             1    3[COMMON] unsigned char 
  3183 ;; Return value:  Size  Location     Type
  3184 ;;                  1    wreg      void 
  3185 ;; Registers used:
  3186 ;;		wreg, status,2, status,0, pclath, cstack
  3187 ;; Tracked objects:
  3188 ;;		On entry : 0/0
  3189 ;;		On exit  : 0/0
  3190 ;;		Unchanged: 0/0
  3191 ;; Data sizes:     COMMON   BANK0   BANK1   BANK2
  3192 ;;      Params:         1       0       0       0
  3193 ;;      Locals:         1       0       0       0
  3194 ;;      Temps:          0       0       0       0
  3195 ;;      Totals:         2       0       0       0
  3196 ;;Total ram usage:        2 bytes
  3197 ;; Hardware stack levels used: 1
  3198 ;; Hardware stack levels required when called: 6
  3199 ;; This function calls:
  3200 ;;		_NRF_SPI
  3201 ;; This function is called by:
  3202 ;;		_NRF_RX_Init
  3203 ;;		_check_and_read_data
  3204 ;;		_NRF_TX_Init
  3205 ;;		_set_TX_mode
  3206 ;;		_set_RX_mode
  3207 ;; This function uses a non-reentrant model
  3208 ;;
  3209                           
  3210  0184                     _NRF_WriteRegister:	
  3211                           ;psect for function _NRF_WriteRegister
  3212                           
  3213                           
  3214                           ;incstack = 0
  3215                           ; Regs used in _NRF_WriteRegister: [wreg+status,2+status,0+pclath+cstack]
  3216                           ;NRF_WriteRegister@reg stored from wreg
  3217  0184  00F3               	movwf	NRF_WriteRegister@reg
  3218  0185                     l1291:
  3219                           
  3220                           ;main.c: 81:     LATAbits.LATA4 = 0;
  3221  0185  0022               	movlb	2	; select bank2
  3222  0186  120C               	bcf	12,4	;volatile
  3223  0187                     l1293:
  3224                           
  3225                           ;main.c: 82:     NRF_SPI(0x20 | (reg & 0x1F));
  3226  0187  0873               	movf	NRF_WriteRegister@reg,w
  3227  0188  391F               	andlw	31
  3228  0189  3820               	iorlw	32
  3229  018A  3181  21E6  3181   	fcall	_NRF_SPI
  3230                           
  3231                           ;main.c: 83:     NRF_SPI(value);
  3232  018D  0872               	movf	NRF_WriteRegister@value,w
  3233  018E  3181  21E6  3181   	fcall	_NRF_SPI
  3234  0191                     l1295:
  3235                           
  3236                           ;main.c: 84:     LATAbits.LATA4 = 1;
  3237  0191  0022               	movlb	2	; select bank2
  3238  0192  160C               	bsf	12,4	;volatile
  3239  0193                     l239:
  3240  0193  0008               	return
  3241  0194                     __end_of_NRF_WriteRegister:
  3242                           
  3243                           	psect	text15
  3244  01E6                     __ptext15:	
  3245 ;; *************** function _NRF_SPI *****************
  3246 ;; Defined at:
  3247 ;;		line 75 in file "main.c"
  3248 ;; Parameters:    Size  Location     Type
  3249 ;;  data            1    wreg     unsigned char 
  3250 ;; Auto vars:     Size  Location     Type
  3251 ;;  data            1    1[COMMON] unsigned char 
  3252 ;; Return value:  Size  Location     Type
  3253 ;;                  1    wreg      unsigned char 
  3254 ;; Registers used:
  3255 ;;		wreg, pclath, cstack
  3256 ;; Tracked objects:
  3257 ;;		On entry : 0/0
  3258 ;;		On exit  : 0/0
  3259 ;;		Unchanged: 0/0
  3260 ;; Data sizes:     COMMON   BANK0   BANK1   BANK2
  3261 ;;      Params:         0       0       0       0
  3262 ;;      Locals:         1       0       0       0
  3263 ;;      Temps:          0       0       0       0
  3264 ;;      Totals:         1       0       0       0
  3265 ;;Total ram usage:        1 bytes
  3266 ;; Hardware stack levels used: 1
  3267 ;; Hardware stack levels required when called: 5
  3268 ;; This function calls:
  3269 ;;		_SPI1_ExchangeByte
  3270 ;; This function is called by:
  3271 ;;		_NRF_WriteRegister
  3272 ;;		_NRF_WriteRegisterMulti
  3273 ;;		_NRF_ReadRegister
  3274 ;;		_NRF_ReadPayload
  3275 ;;		_NRF_SendPayload
  3276 ;;		_NRF_FlushTX
  3277 ;; This function uses a non-reentrant model
  3278 ;;
  3279                           
  3280  01E6                     _NRF_SPI:	
  3281                           ;psect for function _NRF_SPI
  3282                           
  3283                           
  3284                           ;incstack = 0
  3285                           ; Regs used in _NRF_SPI: [wreg+pclath+cstack]
  3286                           ;NRF_SPI@data stored from wreg
  3287  01E6  00F1               	movwf	NRF_SPI@data
  3288  01E7                     l1235:
  3289                           
  3290                           ;main.c: 76:     return SPI1_ExchangeByte(data);
  3291  01E7  0871               	movf	NRF_SPI@data,w
  3292  01E8  3181  21A3  3181   	fcall	_SPI1_ExchangeByte
  3293  01EB                     l236:
  3294  01EB  0008               	return
  3295  01EC                     __end_of_NRF_SPI:
  3296                           
  3297                           	psect	text16
  3298  01A3                     __ptext16:	
  3299 ;; *************** function _SPI1_ExchangeByte *****************
  3300 ;; Defined at:
  3301 ;;		line 99 in file "mcc_generated_files/spi1.c"
  3302 ;; Parameters:    Size  Location     Type
  3303 ;;  data            1    wreg     unsigned char 
  3304 ;; Auto vars:     Size  Location     Type
  3305 ;;  data            1    0[COMMON] unsigned char 
  3306 ;; Return value:  Size  Location     Type
  3307 ;;                  1    wreg      unsigned char 
  3308 ;; Registers used:
  3309 ;;		wreg
  3310 ;; Tracked objects:
  3311 ;;		On entry : 0/0
  3312 ;;		On exit  : 0/0
  3313 ;;		Unchanged: 0/0
  3314 ;; Data sizes:     COMMON   BANK0   BANK1   BANK2
  3315 ;;      Params:         0       0       0       0
  3316 ;;      Locals:         1       0       0       0
  3317 ;;      Temps:          0       0       0       0
  3318 ;;      Totals:         1       0       0       0
  3319 ;;Total ram usage:        1 bytes
  3320 ;; Hardware stack levels used: 1
  3321 ;; Hardware stack levels required when called: 4
  3322 ;; This function calls:
  3323 ;;		Nothing
  3324 ;; This function is called by:
  3325 ;;		_NRF_SPI
  3326 ;;		_SPI1_WriteBlock
  3327 ;;		_SPI1_ReadBlock
  3328 ;;		_read_config
  3329 ;; This function uses a non-reentrant model
  3330 ;;
  3331                           
  3332  01A3                     _SPI1_ExchangeByte:	
  3333                           ;psect for function _SPI1_ExchangeByte
  3334                           
  3335                           
  3336                           ;incstack = 0
  3337                           ; Regs used in _SPI1_ExchangeByte: [wreg]
  3338                           ;SPI1_ExchangeByte@data stored from wreg
  3339  01A3  00F0               	movwf	SPI1_ExchangeByte@data
  3340  01A4                     l1225:
  3341                           
  3342                           ;mcc_generated_files/spi1.c: 99: uint8_t SPI1_ExchangeByte(uint8_t data);mcc_generated_f
      +                          iles/spi1.c: 100: {;mcc_generated_files/spi1.c: 101:     SSP1BUF = data;
  3343  01A4  0870               	movf	SPI1_ExchangeByte@data,w
  3344  01A5  0024               	movlb	4	; select bank4
  3345  01A6  0091               	movwf	17	;volatile
  3346  01A7                     l47:	
  3347                           ;mcc_generated_files/spi1.c: 102:     while(!PIR1bits.SSP1IF);
  3348                           
  3349  01A7  0020               	movlb	0	; select bank0
  3350  01A8  1D91               	btfss	17,3	;volatile
  3351  01A9  29AB               	goto	u201
  3352  01AA  29AC               	goto	u200
  3353  01AB                     u201:
  3354  01AB  29A7               	goto	l47
  3355  01AC                     u200:
  3356  01AC                     l49:
  3357                           
  3358                           ;mcc_generated_files/spi1.c: 103:     PIR1bits.SSP1IF = 0;
  3359  01AC  1191               	bcf	17,3	;volatile
  3360  01AD                     l1227:
  3361                           
  3362                           ;mcc_generated_files/spi1.c: 104:     return SSP1BUF;
  3363  01AD  0024               	movlb	4	; select bank4
  3364  01AE  0811               	movf	17,w	;volatile
  3365  01AF                     l50:
  3366  01AF  0008               	return
  3367  01B0                     __end_of_SPI1_ExchangeByte:
  3368                           
  3369                           	psect	intentry
  3370  0004                     __pintentry:	
  3371 ;; *************** function _INTERRUPT_InterruptManager *****************
  3372 ;; Defined at:
  3373 ;;		line 52 in file "mcc_generated_files/interrupt_manager.c"
  3374 ;; Parameters:    Size  Location     Type
  3375 ;;		None
  3376 ;; Auto vars:     Size  Location     Type
  3377 ;;		None
  3378 ;; Return value:  Size  Location     Type
  3379 ;;                  1    wreg      void 
  3380 ;; Registers used:
  3381 ;;		wreg, status,2, status,0, pclath, cstack
  3382 ;; Tracked objects:
  3383 ;;		On entry : 0/0
  3384 ;;		On exit  : 0/0
  3385 ;;		Unchanged: 0/0
  3386 ;; Data sizes:     COMMON   BANK0   BANK1   BANK2
  3387 ;;      Params:         0       0       0       0
  3388 ;;      Locals:         0       0       0       0
  3389 ;;      Temps:          0       0       0       0
  3390 ;;      Totals:         0       0       0       0
  3391 ;;Total ram usage:        0 bytes
  3392 ;; Hardware stack levels used: 1
  3393 ;; Hardware stack levels required when called: 3
  3394 ;; This function calls:
  3395 ;;		_PIN_MANAGER_IOC
  3396 ;; This function is called by:
  3397 ;;		Interrupt level 1
  3398 ;; This function uses a non-reentrant model
  3399 ;;
  3400                           
  3401  0004                     _INTERRUPT_InterruptManager:
  3402                           
  3403                           ;incstack = 0
  3404  0004  147E               	bsf	int$flags,0	;set compiler interrupt flag (level 1)
  3405                           
  3406                           ; Regs used in _INTERRUPT_InterruptManager: [wreg+status,2+status,0+pclath+cstack]
  3407  0005  3180               	pagesel	$
  3408  0006                     i1l1415:
  3409                           
  3410                           ;mcc_generated_files/interrupt_manager.c: 55:     if(PIE0bits.IOCIE == 1 && PIR0bits.IOC
      +                          IF == 1)
  3411  0006  0021               	movlb	1	; select bank1
  3412  0007  1E10               	btfss	16,4	;volatile
  3413  0008  280A               	goto	u32_21
  3414  0009  280B               	goto	u32_20
  3415  000A                     u32_21:
  3416  000A  2813               	goto	i1l148
  3417  000B                     u32_20:
  3418  000B                     i1l1417:
  3419  000B  0020               	movlb	0	; select bank0
  3420  000C  1E10               	btfss	16,4	;volatile
  3421  000D  280F               	goto	u33_21
  3422  000E  2810               	goto	u33_20
  3423  000F                     u33_21:
  3424  000F  2813               	goto	i1l148
  3425  0010                     u33_20:
  3426  0010                     i1l1419:
  3427                           
  3428                           ;mcc_generated_files/interrupt_manager.c: 56:     {;mcc_generated_files/interrupt_manage
      +                          r.c: 57:         PIN_MANAGER_IOC();
  3429  0010  3181  21C3  3180   	fcall	_PIN_MANAGER_IOC
  3430  0013                     i1l148:	
  3431                           ;mcc_generated_files/interrupt_manager.c: 58:     }
  3432                           
  3433  0013  107E               	bcf	int$flags,0	;clear compiler interrupt flag (level 1)
  3434  0014  0009               	retfie
  3435  0015                     __end_of_INTERRUPT_InterruptManager:
  3436                           
  3437                           	psect	text18
  3438  01C3                     __ptext18:	
  3439 ;; *************** function _PIN_MANAGER_IOC *****************
  3440 ;; Defined at:
  3441 ;;		line 127 in file "mcc_generated_files/pin_manager.c"
  3442 ;; Parameters:    Size  Location     Type
  3443 ;;		None
  3444 ;; Auto vars:     Size  Location     Type
  3445 ;;		None
  3446 ;; Return value:  Size  Location     Type
  3447 ;;                  1    wreg      void 
  3448 ;; Registers used:
  3449 ;;		wreg, status,2, status,0, pclath, cstack
  3450 ;; Tracked objects:
  3451 ;;		On entry : 0/0
  3452 ;;		On exit  : 0/0
  3453 ;;		Unchanged: 0/0
  3454 ;; Data sizes:     COMMON   BANK0   BANK1   BANK2
  3455 ;;      Params:         0       0       0       0
  3456 ;;      Locals:         0       0       0       0
  3457 ;;      Temps:          0       0       0       0
  3458 ;;      Totals:         0       0       0       0
  3459 ;;Total ram usage:        0 bytes
  3460 ;; Hardware stack levels used: 1
  3461 ;; Hardware stack levels required when called: 2
  3462 ;; This function calls:
  3463 ;;		_IOCAF5_ISR
  3464 ;; This function is called by:
  3465 ;;		_INTERRUPT_InterruptManager
  3466 ;; This function uses a non-reentrant model
  3467 ;;
  3468                           
  3469  01C3                     _PIN_MANAGER_IOC:	
  3470                           ;psect for function _PIN_MANAGER_IOC
  3471                           
  3472  01C3                     i1l1355:	
  3473                           ;incstack = 0
  3474                           ; Regs used in _PIN_MANAGER_IOC: [wreg+status,2+status,0+pclath+cstack]
  3475                           
  3476                           
  3477                           ;mcc_generated_files/pin_manager.c: 130:     if(IOCAFbits.IOCAF5 == 1)
  3478  01C3  0027               	movlb	7	; select bank7
  3479  01C4  1E93               	btfss	19,5	;volatile
  3480  01C5  29C7               	goto	u26_21
  3481  01C6  29C8               	goto	u26_20
  3482  01C7                     u26_21:
  3483  01C7  29CB               	goto	i1l207
  3484  01C8                     u26_20:
  3485  01C8                     i1l1357:
  3486                           
  3487                           ;mcc_generated_files/pin_manager.c: 131:     {;mcc_generated_files/pin_manager.c: 132:  
      +                                 IOCAF5_ISR();
  3488  01C8  3181  2194  3181   	fcall	_IOCAF5_ISR
  3489  01CB                     i1l207:
  3490  01CB  0008               	return
  3491  01CC                     __end_of_PIN_MANAGER_IOC:
  3492                           
  3493                           	psect	text19
  3494  0194                     __ptext19:	
  3495 ;; *************** function _IOCAF5_ISR *****************
  3496 ;; Defined at:
  3497 ;;		line 139 in file "mcc_generated_files/pin_manager.c"
  3498 ;; Parameters:    Size  Location     Type
  3499 ;;		None
  3500 ;; Auto vars:     Size  Location     Type
  3501 ;;		None
  3502 ;; Return value:  Size  Location     Type
  3503 ;;                  1    wreg      void 
  3504 ;; Registers used:
  3505 ;;		wreg, status,2, status,0, pclath, cstack
  3506 ;; Tracked objects:
  3507 ;;		On entry : 0/0
  3508 ;;		On exit  : 0/0
  3509 ;;		Unchanged: 0/0
  3510 ;; Data sizes:     COMMON   BANK0   BANK1   BANK2
  3511 ;;      Params:         0       0       0       0
  3512 ;;      Locals:         0       0       0       0
  3513 ;;      Temps:          0       0       0       0
  3514 ;;      Totals:         0       0       0       0
  3515 ;;Total ram usage:        0 bytes
  3516 ;; Hardware stack levels used: 1
  3517 ;; Hardware stack levels required when called: 1
  3518 ;; This function calls:
  3519 ;;		Absolute function
  3520 ;;		_IOCAF5_DefaultInterruptHandler
  3521 ;; This function is called by:
  3522 ;;		_PIN_MANAGER_IOC
  3523 ;; This function uses a non-reentrant model
  3524 ;;
  3525                           
  3526  0194                     _IOCAF5_ISR:	
  3527                           ;psect for function _IOCAF5_ISR
  3528                           
  3529  0194                     i1l1285:	
  3530                           ;incstack = 0
  3531                           ; Regs used in _IOCAF5_ISR: [wreg+status,2+status,0+pclath+cstack]
  3532                           
  3533                           
  3534                           ;mcc_generated_files/pin_manager.c: 144:     if(IOCAF5_InterruptHandler)
  3535  0194  0020               	movlb	0	; select bank0
  3536  0195  082A               	movf	_IOCAF5_InterruptHandler,w
  3537  0196  042B               	iorwf	_IOCAF5_InterruptHandler+1,w
  3538  0197  1903               	btfsc	3,2
  3539  0198  299A               	goto	u21_21
  3540  0199  299B               	goto	u21_20
  3541  019A                     u21_21:
  3542  019A  29A0               	goto	i1l1289
  3543  019B                     u21_20:
  3544  019B                     i1l1287:
  3545                           
  3546                           ;mcc_generated_files/pin_manager.c: 145:     {;mcc_generated_files/pin_manager.c: 146:  
      +                                 IOCAF5_InterruptHandler();
  3547  019B  082B               	movf	_IOCAF5_InterruptHandler+1,w
  3548  019C  008A               	movwf	10
  3549  019D  082A               	movf	_IOCAF5_InterruptHandler,w
  3550  019E  000A               	callw
  3551  019F  3181               	pagesel	$
  3552  01A0                     i1l1289:
  3553                           
  3554                           ;mcc_generated_files/pin_manager.c: 148:     IOCAFbits.IOCAF5 = 0;
  3555  01A0  0027               	movlb	7	; select bank7
  3556  01A1  1293               	bcf	19,5	;volatile
  3557  01A2                     i1l211:
  3558  01A2  0008               	return
  3559  01A3                     __end_of_IOCAF5_ISR:
  3560                           
  3561                           	psect	text20
  3562  01F4                     __ptext20:	
  3563 ;; *************** function _IOCAF5_DefaultInterruptHandler *****************
  3564 ;; Defined at:
  3565 ;;		line 161 in file "mcc_generated_files/pin_manager.c"
  3566 ;; Parameters:    Size  Location     Type
  3567 ;;		None
  3568 ;; Auto vars:     Size  Location     Type
  3569 ;;		None
  3570 ;; Return value:  Size  Location     Type
  3571 ;;                  1    wreg      void 
  3572 ;; Registers used:
  3573 ;;		None
  3574 ;; Tracked objects:
  3575 ;;		On entry : 0/0
  3576 ;;		On exit  : 0/0
  3577 ;;		Unchanged: 0/0
  3578 ;; Data sizes:     COMMON   BANK0   BANK1   BANK2
  3579 ;;      Params:         0       0       0       0
  3580 ;;      Locals:         0       0       0       0
  3581 ;;      Temps:          0       0       0       0
  3582 ;;      Totals:         0       0       0       0
  3583 ;;Total ram usage:        0 bytes
  3584 ;; Hardware stack levels used: 1
  3585 ;; This function calls:
  3586 ;;		Nothing
  3587 ;; This function is called by:
  3588 ;;		_PIN_MANAGER_Initialize
  3589 ;;		_IOCAF5_ISR
  3590 ;; This function uses a non-reentrant model
  3591 ;;
  3592                           
  3593  01F4                     _IOCAF5_DefaultInterruptHandler:	
  3594                           ;psect for function _IOCAF5_DefaultInterruptHandler
  3595                           
  3596  01F4                     i1l217:	
  3597                           ;incstack = 0
  3598                           ; Regs used in _IOCAF5_DefaultInterruptHandler: []
  3599                           
  3600  01F4  0008               	return
  3601  01F5                     __end_of_IOCAF5_DefaultInterruptHandler:
  3602  007E                     btemp	set	126	;btemp
  3603  007E                     int$flags	set	126
  3604  007E                     wtemp0	set	126
  3605                           
  3606                           	psect	idloc
  3607                           
  3608                           ;Config register IDLOC0 @ 0x8000
  3609                           ;	unspecified, using default values
  3610  8000                     	org	32768
  3611  8000  3FFF               	dw	16383
  3612                           
  3613                           ;Config register IDLOC1 @ 0x8001
  3614                           ;	unspecified, using default values
  3615  8001                     	org	32769
  3616  8001  3FFF               	dw	16383
  3617                           
  3618                           ;Config register IDLOC2 @ 0x8002
  3619                           ;	unspecified, using default values
  3620  8002                     	org	32770
  3621  8002  3FFF               	dw	16383
  3622                           
  3623                           ;Config register IDLOC3 @ 0x8003
  3624                           ;	unspecified, using default values
  3625  8003                     	org	32771
  3626  8003  3FFF               	dw	16383
  3627                           
  3628                           	psect	config
  3629                           
  3630                           ;Config register CONFIG1 @ 0x8007
  3631                           ;	FEXTOSC External Oscillator mode Selection bits
  3632                           ;	FEXTOSC = OFF, Oscillator not enabled
  3633                           ;	Power-up default value for COSC bits
  3634                           ;	RSTOSC = HFINT1, HFINTOSC (1MHz)
  3635                           ;	Clock Out Enable bit
  3636                           ;	CLKOUTEN = OFF, CLKOUT function is disabled; I/O or oscillator function on OSC2
  3637                           ;	Clock Switch Enable bit
  3638                           ;	CSWEN = ON, Writing to NOSC and NDIV is allowed
  3639                           ;	Fail-Safe Clock Monitor Enable
  3640                           ;	FCMEN = ON, Fail-Safe Clock Monitor is enabled
  3641  8007                     	org	32775
  3642  8007  3FEC               	dw	16364
  3643                           
  3644                           ;Config register CONFIG2 @ 0x8008
  3645                           ;	Master Clear Enable bit
  3646                           ;	MCLRE = ON, MCLR/VPP pin function is MCLR; Weak pull-up enabled
  3647                           ;	Power-up Timer Enable bit
  3648                           ;	PWRTE = OFF, PWRT disabled
  3649                           ;	Watchdog Timer Enable bits
  3650                           ;	WDTE = OFF, WDT disabled; SWDTEN is ignored
  3651                           ;	Low-power BOR enable bit
  3652                           ;	LPBOREN = OFF, ULPBOR disabled
  3653                           ;	Brown-out Reset Enable bits
  3654                           ;	BOREN = ON, Brown-out Reset enabled, SBOREN bit ignored
  3655                           ;	Brown-out Reset Voltage selection bit
  3656                           ;	BORV = LOW, Brown-out voltage (Vbor) set to 2.45V
  3657                           ;	PPSLOCK bit One-Way Set Enable bit
  3658                           ;	PPS1WAY = ON, The PPSLOCK bit can be cleared and set only once; PPS registers remain l
      +                          ocked after one clear/set cycle
  3659                           ;	Stack Overflow/Underflow Reset Enable bit
  3660                           ;	STVREN = ON, Stack Overflow or Underflow will cause a Reset
  3661                           ;	Debugger enable bit
  3662                           ;	DEBUG = OFF, Background debugger disabled
  3663  8008                     	org	32776
  3664  8008  3FF3               	dw	16371
  3665                           
  3666                           ;Config register CONFIG3 @ 0x8009
  3667                           ;	User NVM self-write protection bits
  3668                           ;	WRT = OFF, Write protection off
  3669                           ;	Low Voltage Programming Enable bit
  3670                           ;	LVP = ON, Low Voltage programming enabled. MCLR/VPP pin function is MCLR. MCLRE config
      +                          uration bit is ignored.
  3671  8009                     	org	32777
  3672  8009  3FFF               	dw	16383
  3673                           
  3674                           ;Config register CONFIG4 @ 0x800A
  3675                           ;	User NVM Program Memory Code Protection bit
  3676                           ;	CP = OFF, User NVM code protection disabled
  3677                           ;	Data NVM Memory Code Protection bit
  3678                           ;	CPD = OFF, Data NVM code protection disabled
  3679  800A                     	org	32778
  3680  800A  3FFF               	dw	16383

Data Sizes:
    Strings     0
    Constant    4
    Data        10
    BSS         0
    Persistent  36
    Stack       0

Auto Spaces:
    Space          Size  Autos    Used
    COMMON           14     14      14
    BANK0            80      1      15
    BANK1            80      0       0
    BANK2            80      0       0

Pointer List with Targets:

    NRF_ReadPayload@data	PTR unsigned char  size(1) Largest target is 1
		 -> check_and_read_data@payload(COMMON[1]), 

    NRF_WriteRegisterMulti@data	PTR unsigned char  size(1) Largest target is 5
		 -> NRF_RX_Init@rx_address(COMMON[5]), NRF_TX_Init@tx_address(COMMON[5]), 

    IOCAF5_SetInterruptHandler@InterruptHandler	PTR FTN()void  size(2) Largest target is 1
		 -> IOCAF5_DefaultInterruptHandler(), 

    IOCAF5_InterruptHandler	PTR FTN()void  size(2) Largest target is 1
		 -> IOCAF5_DefaultInterruptHandler(), Absolute function(), 

    SPI1_SetInterruptHandler@handler	PTR FTN()void  size(2) Largest target is 1
		 -> SPI1_Isr(), 

    MSSP1_InterruptHandler	PTR FTN()void  size(2) Largest target is 1
		 -> Absolute function(), SPI1_Isr(), 


Critical Paths under _main in COMMON

    _main->_NRF_RX_Init
    _check_and_read_data->_NRF_ReadPayload
    _NRF_ReadRegister->_NRF_SPI
    _NRF_ReadPayload->_NRF_SPI
    _SPI1_Initialize->_SPI1_SetInterruptHandler
    _PIN_MANAGER_Initialize->_IOCAF5_SetInterruptHandler
    _NRF_RX_Init->_NRF_WriteRegisterMulti
    _NRF_WriteRegisterMulti->_NRF_SPI
    _NRF_WriteRegister->_NRF_SPI
    _NRF_SPI->_SPI1_ExchangeByte

Critical Paths under _INTERRUPT_InterruptManager in COMMON

    None.

Critical Paths under _main in BANK0

    None.

Critical Paths under _INTERRUPT_InterruptManager in BANK0

    None.

Critical Paths under _main in BANK1

    None.

Critical Paths under _INTERRUPT_InterruptManager in BANK1

    None.

Critical Paths under _main in BANK2

    None.

Critical Paths under _INTERRUPT_InterruptManager in BANK2

    None.

Call Graph Tables:

 ---------------------------------------------------------------------------------
 (Depth) Function   	        Calls       Base Space   Used Autos Params    Refs
 ---------------------------------------------------------------------------------
 (0) _main                                                 1     1      0    3841
                                              0 BANK0      1     1      0
                        _NRF_RX_Init
                  _SYSTEM_Initialize
                _check_and_read_data
 ---------------------------------------------------------------------------------
 (1) _check_and_read_data                                  3     3      0    1705
                                              7 COMMON     3     3      0
                    _NRF_ReadPayload
                   _NRF_ReadRegister
                  _NRF_WriteRegister
 ---------------------------------------------------------------------------------
 (2) _NRF_ReadRegister                                     3     3      0      89
                                              2 COMMON     3     3      0
                            _NRF_SPI
 ---------------------------------------------------------------------------------
 (2) _NRF_ReadPayload                                      5     4      1     243
                                              2 COMMON     5     4      1
                            _NRF_SPI
 ---------------------------------------------------------------------------------
 (1) _SYSTEM_Initialize                                    0     0      0     196
              _OSCILLATOR_Initialize
             _PIN_MANAGER_Initialize
                     _PMD_Initialize
                    _SPI1_Initialize
                     _WDT_Initialize
 ---------------------------------------------------------------------------------
 (2) _WDT_Initialize                                       0     0      0       0
 ---------------------------------------------------------------------------------
 (2) _SPI1_Initialize                                      0     0      0      98
           _SPI1_SetInterruptHandler
 ---------------------------------------------------------------------------------
 (3) _SPI1_SetInterruptHandler                             2     0      2      98
                                              0 COMMON     2     0      2
 ---------------------------------------------------------------------------------
 (2) _PMD_Initialize                                       0     0      0       0
 ---------------------------------------------------------------------------------
 (2) _PIN_MANAGER_Initialize                               0     0      0      98
         _IOCAF5_SetInterruptHandler
 ---------------------------------------------------------------------------------
 (3) _IOCAF5_SetInterruptHandler                           2     0      2      98
                                              0 COMMON     2     0      2
 ---------------------------------------------------------------------------------
 (2) _OSCILLATOR_Initialize                                0     0      0       0
 ---------------------------------------------------------------------------------
 (1) _NRF_RX_Init                                          7     7      0    1940
                                              7 COMMON     7     7      0
                  _NRF_WriteRegister
             _NRF_WriteRegisterMulti
 ---------------------------------------------------------------------------------
 (2) _NRF_WriteRegisterMulti                               5     3      2     612
                                              2 COMMON     5     3      2
                            _NRF_SPI
 ---------------------------------------------------------------------------------
 (2) _NRF_WriteRegister                                    2     1      1    1304
                                              2 COMMON     2     1      1
                            _NRF_SPI
 ---------------------------------------------------------------------------------
 (3) _NRF_SPI                                              1     1      0      44
                                              1 COMMON     1     1      0
                  _SPI1_ExchangeByte
 ---------------------------------------------------------------------------------
 (4) _SPI1_ExchangeByte                                    1     1      0      22
                                              0 COMMON     1     1      0
 ---------------------------------------------------------------------------------
 Estimated maximum stack depth 4
 ---------------------------------------------------------------------------------
 (Depth) Function   	        Calls       Base Space   Used Autos Params    Refs
 ---------------------------------------------------------------------------------
 (5) _INTERRUPT_InterruptManager                           0     0      0       0
                    _PIN_MANAGER_IOC
 ---------------------------------------------------------------------------------
 (6) _PIN_MANAGER_IOC                                      0     0      0       0
                         _IOCAF5_ISR
 ---------------------------------------------------------------------------------
 (7) _IOCAF5_ISR                                           0     0      0       0
                   Absolute function *
     _IOCAF5_DefaultInterruptHandler *
 ---------------------------------------------------------------------------------
 (8) _IOCAF5_DefaultInterruptHandler                       0     0      0       0
 ---------------------------------------------------------------------------------
 (8) Absolute function(Fake)                               0     0      0       0
 ---------------------------------------------------------------------------------
 Estimated maximum stack depth 8
 ---------------------------------------------------------------------------------

 Call Graph Graphs:

 _main (ROOT)
   _NRF_RX_Init
     _NRF_WriteRegister
       _NRF_SPI
         _SPI1_ExchangeByte
     _NRF_WriteRegisterMulti
       _NRF_SPI
   _SYSTEM_Initialize
     _OSCILLATOR_Initialize
     _PIN_MANAGER_Initialize
       _IOCAF5_SetInterruptHandler
     _PMD_Initialize
     _SPI1_Initialize
       _SPI1_SetInterruptHandler
     _WDT_Initialize
   _check_and_read_data
     _NRF_ReadPayload
       _NRF_SPI
     _NRF_ReadRegister
       _NRF_SPI
     _NRF_WriteRegister

 _INTERRUPT_InterruptManager (ROOT)
   _PIN_MANAGER_IOC
     _IOCAF5_ISR
       Absolute function(Fake) *
       _IOCAF5_DefaultInterruptHandler *

 Address spaces:
Name               Size   Autos  Total    Cost      Usage
BIGRAM              F0      0       0       0        0.0%
EEDATA             100      0       0       0        0.0%
NULL                 0      0       0       0        0.0%
CODE                 0      0       0       0        0.0%
BITCOMMON            E      0       0       1        0.0%
BITSFR0              0      0       0       1        0.0%
SFR0                 0      0       0       1        0.0%
COMMON               E      E       E       2      100.0%
BITSFR1              0      0       0       2        0.0%
SFR1                 0      0       0       2        0.0%
BITSFR2              0      0       0       3        0.0%
SFR2                 0      0       0       3        0.0%
STACK                0      0       0       3        0.0%
BITSFR3              0      0       0       4        0.0%
SFR3                 0      0       0       4        0.0%
ABS                  0      0      1D       4        0.0%
BITBANK0            50      0       0       5        0.0%
BITSFR4              0      0       0       5        0.0%
SFR4                 0      0       0       5        0.0%
BANK0               50      1       F       6       18.8%
BITSFR5              0      0       0       6        0.0%
SFR5                 0      0       0       6        0.0%
BITBANK1            50      0       0       7        0.0%
BITSFR6              0      0       0       7        0.0%
SFR6                 0      0       0       7        0.0%
BANK1               50      0       0       8        0.0%
BITSFR7              0      0       0       8        0.0%
SFR7                 0      0       0       8        0.0%
BITBANK2            50      0       0       9        0.0%
BITSFR8              0      0       0       9        0.0%
SFR8                 0      0       0       9        0.0%
BANK2               50      0       0      10        0.0%
BITSFR9              0      0       0      10        0.0%
SFR9                 0      0       0      10        0.0%
BITSFR10             0      0       0      11        0.0%
SFR10                0      0       0      11        0.0%
DATA                 0      0      1D      11        0.0%
BITSFR11             0      0       0      12        0.0%
SFR11                0      0       0      12        0.0%
BITSFR12             0      0       0      13        0.0%
SFR12                0      0       0      13        0.0%
BITSFR13             0      0       0      14        0.0%
SFR13                0      0       0      14        0.0%
BITSFR14             0      0       0      15        0.0%
SFR14                0      0       0      15        0.0%
BITSFR15             0      0       0      16        0.0%
SFR15                0      0       0      16        0.0%
BITSFR16             0      0       0      17        0.0%
SFR16                0      0       0      17        0.0%
BITSFR17             0      0       0      18        0.0%
SFR17                0      0       0      18        0.0%
BITSFR18             0      0       0      19        0.0%
SFR18                0      0       0      19        0.0%
BITSFR19             0      0       0      20        0.0%
SFR19                0      0       0      20        0.0%
BITSFR20             0      0       0      21        0.0%
SFR20                0      0       0      21        0.0%
BITSFR21             0      0       0      22        0.0%
SFR21                0      0       0      22        0.0%
BITSFR22             0      0       0      23        0.0%
SFR22                0      0       0      23        0.0%
BITSFR23             0      0       0      24        0.0%
SFR23                0      0       0      24        0.0%
BITSFR24             0      0       0      25        0.0%
SFR24                0      0       0      25        0.0%
BITSFR25             0      0       0      26        0.0%
SFR25                0      0       0      26        0.0%
BITSFR26             0      0       0      27        0.0%
SFR26                0      0       0      27        0.0%
BITSFR27             0      0       0      28        0.0%
SFR27                0      0       0      28        0.0%
BITSFR28             0      0       0      29        0.0%
SFR28                0      0       0      29        0.0%
BITSFR29             0      0       0      30        0.0%
SFR29                0      0       0      30        0.0%
BITSFR30             0      0       0      31        0.0%
SFR30                0      0       0      31        0.0%
BITSFR31             0      0       0      32        0.0%
SFR31                0      0       0      32        0.0%


Microchip Technology PIC Macro Assembler V2.36 build 20220127204148 
Symbol Table                                                                                   Sat Aug 16 17:36:17 2025

                         _SPI1_ExchangeByte 01A3                                          l50 01AF  
                                        l37 0149                                          l47 01A7  
                                        l49 01AC                                          l85 01DF  
                        ?_SPI1_ExchangeByte 0070                                         l130 01F3  
                                       l203 00B3                                         l124 0183  
                                       l133 01D3                                         l214 01E5  
                                       l127 01C2                                         l236 01EB  
                                       l244 0129                                         l245 012B  
                                       l270 0173                                         l239 0193  
                                       l267 007F                                         l275 0100  
                                       l276 0109                                         l287 00DF  
                                       l933 01CC                                         l971 01BE  
                                       l973 01C1                                         l967 01BA  
                                       l975 01F0                                         l969 01BD  
                                       u200 01AC                                         u201 01AB  
                                       u220 0129                                         u221 0128  
                                       u230 0100                                         u231 00FF  
                                       u270 0037                                         u280 00BF  
                                       u281 00BE                                         u290 00D3  
                                       u291 00D2                                         u367 0157  
                                       u377 00D8                                         u387 0028  
                       ??_SPI1_ExchangeByte 0070                                         wreg 0009  
        __end_of_IOCAF5_SetInterruptHandler 01E6                  _IOCAF5_SetInterruptHandler 01E0  
                                      l1301 0113                                        l1303 0115  
                                      l1231 01DA                                        l1311 0164  
                                      l1225 01A4                                        l1305 011F  
                                      l1233 01E0                                        l1241 0139  
                                      l1321 00E1                                        l1313 0169  
                                      l1227 01AD                                        l1235 01E7  
                                      l1307 0123                                        l1251 0147  
                                      l1243 013A                                        l1331 00FA  
                                      l1323 00E3                                        l1315 0170  
                                      l1261 0094                                        l1253 0080  
                                      l1245 013C                                        l1333 0103  
                                      l1325 00E7                                        l1317 0172  
                                      l1309 0162                                        l1271 009D  
                                      l1263 0096                                        l1255 0083  
                                      l1247 013E                                        l1239 012C  
                                      l1351 017D                                        l1335 0107  
                                      l1327 00E9                                        l1361 002D  
                                      l1281 00AD                                        l1273 009E  
                                      l1265 0099                                        l1257 0086  
                                      l1249 0145                                        l1353 0180  
                                      l1345 0174                                        l1329 00F6  
                                      l1291 0185                                        l1371 0053  
                                      l1363 003B                                        l1283 00B0  
                                      l1275 00A5                                        l1267 009B  
                                      l1259 0091                                        l1347 0177  
                                      l1293 0187                                        l1381 007D  
                                      l1373 005B                                        l1365 003D  
                                      l1277 00A7                                        l1269 009C  
                                      l1349 017A                                        l1295 0191  
                                      l1375 0063                                        l1367 0045  
                                      l1359 0025                                        l1279 00AA  
                                      l1391 00CD                                        l1383 00B4  
                                      l1297 010B                                        l1377 0069  
                                      l1369 004B                                        l1393 00D3  
                                      l1385 00BB                                        l1299 010D  
                                      l1379 0075                                        l1395 00D5  
                                      l1387 00BF                                        l1491 014D  
                                      l1397 00DD                                        l1389 00C5  
                                      l1493 014F                                        l1495 0150  
                                      l1497 0153                                        l1489 014A  
                                      l1499 015C                                        _LATA 010C  
                                      _LATC 010E                                        _PMD0 0911  
                                      _PMD1 0912                                        _PMD2 0913  
                                      _PMD3 0914                                        _PMD4 0915  
                                      _PMD5 0916                                        _WPUA 020C  
                                      _WPUC 020E                             __end_of_NRF_SPI 01EC  
                                      _main 014A                                        fsr0h 0005  
                                      fsr1h 0007                                        fsr0l 0004  
                                      indf1 0001                                        fsr1l 0006  
                                      btemp 007E                                        start 0015  
                 __end_of_SPI1_ExchangeByte 01B0               __end_of_OSCILLATOR_Initialize 01C3  
                                     ?_main 0070                                       i1l211 01A2  
                                     i1l207 01CB                                       i1l217 01F4  
                                     i1l148 0013                                       _OSCEN 091D  
                                     u21_20 019B                                       u21_21 019A  
                                     u32_20 000B                                       u32_21 000A  
                                     u33_20 0010                                       u33_21 000F  
                                     u26_20 01C8                                       u26_21 01C7  
                                     _TRISA 008C                                       _TRISC 008E  
                   __end_of_PIN_MANAGER_IOC 01CC                              _WDT_Initialize 01F0  
                                     pclath 000A                                       status 0003  
                                     wtemp0 007E                             __initialization 0016  
                              __end_of_main 0161                    _SPI1_SetInterruptHandler 01DA  
               ?_INTERRUPT_InterruptManager 0070                                      ??_main 002E  
                    __end_of_WDT_Initialize 01F4                                   ??_NRF_SPI 0071  
                      NRF_WriteRegister@reg 0073                                ?_NRF_RX_Init 0070  
                                    _ANSELA 018C                                      _ANSELC 018E  
                                    _RC0PPS 0EA0                                      _RC2PPS 0EA2  
                                    i1l1415 0006                                      i1l1417 000B  
                                    _ODCONA 028C                                      i1l1355 01C3  
                                    i1l1419 0010                                      _ODCONC 028E  
                                    i1l1285 0194                                      i1l1357 01C8  
                                    i1l1287 019B                                      i1l1289 01A0  
                                    _INLVLA 038C                                      _INLVLC 038E  
                                    _OSCFRQ 091F                                      _WDTCON 0097  
                 NRF_WriteRegisterMulti@len 0073                   NRF_WriteRegisterMulti@reg 0075  
                    _NRF_WriteRegisterMulti 010A                              _PMD_Initialize 01CC  
                           ?_WDT_Initialize 0070  IOCAF5_SetInterruptHandler@InterruptHandler 0070  
                          ?_PIN_MANAGER_IOC 0070                                ??_IOCAF5_ISR 0070  
                         _SYSTEM_Initialize 0174                     __end_of__initialization 0022  
                        ?_SYSTEM_Initialize 0070                              __pcstackCOMMON 0070  
                    NRF_ReadRegister@result 0074                                __pidataBANK0 01B0  
                       ??_SYSTEM_Initialize 0072                           ??_SPI1_Initialize 0072  
                    __end_of_PMD_Initialize 01D4                       SPI1_ExchangeByte@data 0070  
                        __end_of_IOCAF5_ISR 01A3                          _spi1_configuration 01EC  
                       _check_and_read_data 00B4                 ?_IOCAF5_SetInterruptHandler 0070  
                 __end_of_SYSTEM_Initialize 0184            ??_IOCAF5_DefaultInterruptHandler 0070  
           ?_IOCAF5_DefaultInterruptHandler 0070                        ?_check_and_read_data 0070  
                   _IOCAF5_InterruptHandler 002A                                  __pmaintext 014A  
                                __pintentry 0004                             ?_PMD_Initialize 0070  
                                   _OSCCON1 0919                                     _OSCCON3 091B  
                               NRF_SPI@data 0071                                     _OSCTUNE 091E  
                                   _NRF_SPI 01E6                                     _SSP1ADD 0212  
                                   _SLRCONA 030C                                     _SLRCONC 030E  
                                   _SSP1BUF 0211                  check_and_read_data@payload 0079  
                          NRF_RX_Init@F5222 0020                       ??_check_and_read_data 0077  
                ??_SPI1_SetInterruptHandler 0072                   check_and_read_data@status 0078  
                   NRF_WriteRegisterMulti@i 0076                  NRF_WriteRegisterMulti@data 0072  
                          _NRF_ReadRegister 0161                                     __ptext1 00B4  
                                   __ptext2 0161                                     __ptext3 00E0  
                                   __ptext4 0174                                     __ptext5 01F0  
                                   __ptext6 012C                                     __ptext7 01DA  
                                   __ptext8 01CC                                     __ptext9 0080  
                     _OSCILLATOR_Initialize 01BA                    ??_PIN_MANAGER_Initialize 0072  
                                 _IOCAFbits 0393                                   _IOCANbits 0392  
                                 _IOCAPbits 0391                        end_of_initialization 0022  
                                   init_ram 01D4                                     initloop 01D5  
                         ??_NRF_ReadPayload 0073                     ?_NRF_WriteRegisterMulti 0072  
                          ??_WDT_Initialize 0070                                   _TRISAbits 008C  
                                 _TRISCbits 008E                            NRF_TX_Init@F5219 0025  
                           _SPI1_Initialize 012C              __end_of_NRF_WriteRegisterMulti 012C  
                    ?_OSCILLATOR_Initialize 0070                         start_initialization 0016  
                          ??_PMD_Initialize 0070                                 __pdataBANK0 0020  
    __end_of_IOCAF5_DefaultInterruptHandler 01F5              _IOCAF5_DefaultInterruptHandler 01F4  
                                 ___latbits 0000                               __pcstackBANK0 002E  
                                  ?_NRF_SPI 0070                     __end_of_SPI1_Initialize 014A  
                  __end_of_NRF_ReadRegister 0174                                   __pnvBANK0 002A  
                    _PIN_MANAGER_Initialize 0080                      _MSSP1_InterruptHandler 002C  
              ??_INTERRUPT_InterruptManager 0070                      NRF_WriteRegister@value 0072  
                           _NRF_ReadPayload 00E0                               ??_NRF_RX_Init 0077  
               __end_of_check_and_read_data 00E0                                    _LATAbits 010C  
                                  _LATCbits 010E                                    _PIE0bits 0090  
                                  _PIE1bits 0091                                    _PIR0bits 0010  
                                  _PIR1bits 0011                                    _SPI1_Isr 0000  
                                  _SSP1CON1 0215                                    _SSP1CON2 0216  
                                  _SSP1STAT 0214                           ??_PIN_MANAGER_IOC 0070  
                 ?_SPI1_SetInterruptHandler 0070                            ?_SPI1_Initialize 0070  
                       __end_of_NRF_RX_Init 0080             SPI1_SetInterruptHandler@handler 0070  
                   ??_OSCILLATOR_Initialize 0070                     __end_of_NRF_ReadPayload 010A  
                                  __ptext10 01E0                                    __ptext11 01BA  
                                  __ptext20 01F4                                    __ptext12 0025  
                                  __ptext13 010A                                    __ptext14 0184  
                                  __ptext15 01E6                                    __ptext16 01A3  
                                  __ptext18 01C3                                    __ptext19 0194  
              ??_IOCAF5_SetInterruptHandler 0072                                _SSP1CON1bits 0215  
                                _IOCAF5_ISR 0194                                    int$flags 007E  
        __end_of_INTERRUPT_InterruptManager 0015                  _INTERRUPT_InterruptManager 0004  
                       NRF_ReadPayload@data 0075                         NRF_ReadRegister@reg 0073  
                               _NRF_RX_Init 0025                                    intlevel1 0000  
                         _NRF_WriteRegister 0184                           ?_NRF_ReadRegister 0070  
                   ?_PIN_MANAGER_Initialize 0070                          ?_NRF_WriteRegister 0072  
                        ??_NRF_ReadRegister 0072                         ??_NRF_WriteRegister 0073  
                        NRF_ReadPayload@len 0072                               __pstringtext1 01EC  
                     NRF_RX_Init@rx_address 0079                                  _SSP1DATPPS 0E21  
                          ?_NRF_ReadPayload 0072                                  _SSP1CLKPPS 0E20  
                 __end_of_NRF_WriteRegister 0194                    ??_NRF_WriteRegisterMulti 0074  
                               ?_IOCAF5_ISR 0070              __end_of_PIN_MANAGER_Initialize 00B4  
                          NRF_ReadPayload@i 0076                             _PIN_MANAGER_IOC 01C3  
                __end_of_spi1_configuration 01F0            __end_of_SPI1_SetInterruptHandler 01E0  
