

Microchip MPLAB XC8 Assembler V2.36 build 20220127204148 
                                                                                               Tue Aug 12 18:51:29 2025

Microchip MPLAB XC8 C Compiler v2.36 (Free license) build 20220127204148 Og1 
     1                           	processor	16F18323
     2                           	pagewidth 120
     3                           	opt	flic
     4                           	psect	idataBANK0,global,class=CODE,delta=2,noexec
     5                           	psect	stringtext1,global,class=STRCODE,delta=2,noexec
     6                           	psect	nvBANK0,global,class=BANK0,space=1,delta=1,noexec
     7                           	psect	cinit,global,class=CODE,merge=1,delta=2
     8                           	psect	dataBANK0,global,class=BANK0,space=1,delta=1,noexec
     9                           	psect	inittext,global,class=CODE,delta=2
    10                           	psect	cstackCOMMON,global,class=COMMON,space=1,delta=1,noexec
    11                           	psect	cstackBANK0,global,class=BANK0,space=1,delta=1,noexec
    12                           	psect	maintext,global,class=CODE,merge=1,split=1,delta=2
    13                           	psect	text1,local,class=CODE,merge=1,delta=2
    14                           	psect	text2,local,class=CODE,merge=1,delta=2
    15                           	psect	text3,local,class=CODE,merge=1,delta=2
    16                           	psect	text4,local,class=CODE,merge=1,delta=2
    17                           	psect	text5,local,class=CODE,merge=1,delta=2
    18                           	psect	text6,local,class=CODE,merge=1,delta=2
    19                           	psect	text7,local,class=CODE,merge=1,delta=2
    20                           	psect	text8,local,class=CODE,merge=1,delta=2
    21                           	psect	text9,local,class=CODE,merge=1,delta=2
    22                           	psect	text10,local,class=CODE,merge=1,delta=2
    23                           	psect	text11,local,class=CODE,merge=1,delta=2
    24                           	psect	text12,local,class=CODE,merge=1,delta=2
    25                           	psect	text13,local,class=CODE,merge=1,delta=2
    26                           	psect	text14,local,class=CODE,merge=1,delta=2
    27                           	psect	text15,local,class=CODE,merge=1,delta=2
    28                           	psect	text16,local,class=CODE,merge=1,delta=2
    29                           	psect	intentry,global,class=CODE,delta=2
    30                           	psect	text18,local,class=CODE,merge=1,delta=2
    31                           	psect	text19,local,class=CODE,merge=1,delta=2
    32                           	psect	text20,local,class=CODE,merge=1,delta=2
    33                           	psect	idloc,global,abs,ovrld,class=IDLOC,space=5,delta=2,noexec
    34                           	psect	config,global,abs,ovrld,class=CONFIG,space=4,delta=2,noexec
    35                           	dabs	1,0x7E,2
    36  0000                     
    37                           ; Generated 28/03/2025 GMT
    38                           ; 
    39                           ; Copyright © 2025, Microchip Technology Inc. and its subsidiaries ("Microchip")
    40                           ; All rights reserved.
    41                           ; 
    42                           ; This software is developed by Microchip Technology Inc. and its subsidiaries ("Microch
      +                          ip").
    43                           ; 
    44                           ; Redistribution and use in source and binary forms, with or without modification, are
    45                           ; permitted provided that the following conditions are met:
    46                           ; 
    47                           ;     1. Redistributions of source code must retain the above copyright notice, this lis
      +                          t of
    48                           ;        conditions and the following disclaimer.
    49                           ; 
    50                           ;     2. Redistributions in binary form must reproduce the above copyright notice, this 
      +                          list
    51                           ;        of conditions and the following disclaimer in the documentation and/or other
    52                           ;        materials provided with the distribution. Publication is not required when
    53                           ;        this file is used in an embedded application.
    54                           ; 
    55                           ;     3. Microchip's name may not be used to endorse or promote products derived from th
      +                          is
    56                           ;        software without specific prior written permission.
    57                           ; 
    58                           ; THIS SOFTWARE IS PROVIDED BY MICROCHIP "AS IS" AND ANY EXPRESS OR IMPLIED WARRANTIES,
    59                           ; INCLUDING, BUT NOT LIMITED TO, THE IMPLIED WARRANTIES OF MERCHANTABILITY AND FITNESS F
      +                          OR
    60                           ; PURPOSE ARE DISCLAIMED.  IN NO EVENT SHALL MICROCHIP BE LIABLE FOR ANY DIRECT, INDIREC
      +                          T,
    61                           ; INCIDENTAL, SPECIAL, EXEMPLARY, OR CONSEQUENTIAL DAMAGES (INCLUDING BUT NOT LIMITED TO
    62                           ; PROCUREMENT OF SUBSTITUTE GOODS OR SERVICES; LOSS OF USE, DATA OR PROFITS; OR BUSINESS
    63                           ; INTERRUPTION) HOWSOEVER CAUSED AND ON ANY THEORY OF LIABILITY, WHETHER IN CONTRACT, ST
      +                          RICT
    64                           ; LIABILITY, OR TORT (INCLUDING NEGLIGENCE OR OTHERWISE) ARISING IN ANY WAY OUT OF THE U
      +                          SE OF
    65                           ; THIS SOFTWARE, EVEN IF ADVISED OF THE POSSIBILITY OF SUCH DAMAGE.
    66                           ; 
    67                           ; 
    68                           ; Code-generator required, PIC16F18323 Definitions
    69                           ; 
    70                           ; SFR Addresses
    71  0000                     	;# 
    72  0001                     	;# 
    73  0002                     	;# 
    74  0003                     	;# 
    75  0004                     	;# 
    76  0005                     	;# 
    77  0006                     	;# 
    78  0007                     	;# 
    79  0008                     	;# 
    80  0009                     	;# 
    81  000A                     	;# 
    82  000B                     	;# 
    83  000C                     	;# 
    84  000E                     	;# 
    85  0010                     	;# 
    86  0011                     	;# 
    87  0012                     	;# 
    88  0013                     	;# 
    89  0014                     	;# 
    90  0015                     	;# 
    91  0015                     	;# 
    92  0016                     	;# 
    93  0016                     	;# 
    94  0017                     	;# 
    95  0018                     	;# 
    96  0019                     	;# 
    97  0019                     	;# 
    98  001A                     	;# 
    99  001B                     	;# 
   100  001C                     	;# 
   101  001D                     	;# 
   102  001E                     	;# 
   103  001F                     	;# 
   104  008C                     	;# 
   105  008E                     	;# 
   106  0090                     	;# 
   107  0091                     	;# 
   108  0092                     	;# 
   109  0093                     	;# 
   110  0094                     	;# 
   111  0097                     	;# 
   112  009B                     	;# 
   113  009B                     	;# 
   114  009C                     	;# 
   115  009D                     	;# 
   116  009E                     	;# 
   117  009F                     	;# 
   118  010C                     	;# 
   119  010E                     	;# 
   120  0111                     	;# 
   121  0112                     	;# 
   122  0113                     	;# 
   123  0114                     	;# 
   124  0115                     	;# 
   125  0116                     	;# 
   126  0117                     	;# 
   127  0118                     	;# 
   128  0119                     	;# 
   129  018C                     	;# 
   130  018E                     	;# 
   131  0197                     	;# 
   132  0199                     	;# 
   133  0199                     	;# 
   134  0199                     	;# 
   135  019A                     	;# 
   136  019A                     	;# 
   137  019A                     	;# 
   138  019B                     	;# 
   139  019B                     	;# 
   140  019B                     	;# 
   141  019B                     	;# 
   142  019B                     	;# 
   143  019C                     	;# 
   144  019C                     	;# 
   145  019C                     	;# 
   146  019D                     	;# 
   147  019D                     	;# 
   148  019D                     	;# 
   149  019E                     	;# 
   150  019E                     	;# 
   151  019E                     	;# 
   152  019F                     	;# 
   153  019F                     	;# 
   154  019F                     	;# 
   155  019F                     	;# 
   156  019F                     	;# 
   157  020C                     	;# 
   158  020E                     	;# 
   159  0211                     	;# 
   160  0211                     	;# 
   161  0212                     	;# 
   162  0212                     	;# 
   163  0213                     	;# 
   164  0213                     	;# 
   165  0214                     	;# 
   166  0214                     	;# 
   167  0215                     	;# 
   168  0215                     	;# 
   169  0215                     	;# 
   170  0215                     	;# 
   171  0216                     	;# 
   172  0216                     	;# 
   173  0217                     	;# 
   174  0217                     	;# 
   175  028C                     	;# 
   176  028E                     	;# 
   177  0291                     	;# 
   178  0291                     	;# 
   179  0292                     	;# 
   180  0293                     	;# 
   181  0294                     	;# 
   182  0295                     	;# 
   183  0295                     	;# 
   184  0296                     	;# 
   185  0297                     	;# 
   186  0298                     	;# 
   187  030C                     	;# 
   188  030E                     	;# 
   189  038C                     	;# 
   190  038E                     	;# 
   191  0391                     	;# 
   192  0392                     	;# 
   193  0393                     	;# 
   194  0397                     	;# 
   195  0398                     	;# 
   196  0399                     	;# 
   197  039A                     	;# 
   198  039C                     	;# 
   199  039D                     	;# 
   200  039E                     	;# 
   201  039F                     	;# 
   202  0498                     	;# 
   203  0498                     	;# 
   204  0499                     	;# 
   205  049A                     	;# 
   206  049B                     	;# 
   207  049B                     	;# 
   208  049C                     	;# 
   209  049D                     	;# 
   210  049E                     	;# 
   211  049F                     	;# 
   212  0617                     	;# 
   213  0618                     	;# 
   214  0619                     	;# 
   215  0619                     	;# 
   216  061A                     	;# 
   217  061B                     	;# 
   218  061C                     	;# 
   219  061C                     	;# 
   220  0691                     	;# 
   221  0692                     	;# 
   222  0693                     	;# 
   223  0694                     	;# 
   224  0695                     	;# 
   225  0696                     	;# 
   226  0697                     	;# 
   227  0698                     	;# 
   228  0699                     	;# 
   229  0891                     	;# 
   230  0891                     	;# 
   231  0891                     	;# 
   232  0891                     	;# 
   233  0891                     	;# 
   234  0891                     	;# 
   235  0892                     	;# 
   236  0892                     	;# 
   237  0892                     	;# 
   238  0893                     	;# 
   239  0893                     	;# 
   240  0893                     	;# 
   241  0893                     	;# 
   242  0893                     	;# 
   243  0893                     	;# 
   244  0894                     	;# 
   245  0894                     	;# 
   246  0894                     	;# 
   247  0895                     	;# 
   248  0895                     	;# 
   249  0895                     	;# 
   250  0896                     	;# 
   251  0896                     	;# 
   252  0896                     	;# 
   253  089B                     	;# 
   254  0911                     	;# 
   255  0912                     	;# 
   256  0913                     	;# 
   257  0914                     	;# 
   258  0915                     	;# 
   259  0916                     	;# 
   260  0918                     	;# 
   261  0919                     	;# 
   262  091A                     	;# 
   263  091B                     	;# 
   264  091C                     	;# 
   265  091D                     	;# 
   266  091E                     	;# 
   267  091F                     	;# 
   268  0E0F                     	;# 
   269  0E10                     	;# 
   270  0E11                     	;# 
   271  0E12                     	;# 
   272  0E13                     	;# 
   273  0E14                     	;# 
   274  0E15                     	;# 
   275  0E18                     	;# 
   276  0E1A                     	;# 
   277  0E1B                     	;# 
   278  0E1C                     	;# 
   279  0E20                     	;# 
   280  0E21                     	;# 
   281  0E22                     	;# 
   282  0E24                     	;# 
   283  0E25                     	;# 
   284  0E28                     	;# 
   285  0E29                     	;# 
   286  0E2A                     	;# 
   287  0E2B                     	;# 
   288  0E90                     	;# 
   289  0E91                     	;# 
   290  0E92                     	;# 
   291  0E94                     	;# 
   292  0E95                     	;# 
   293  0EA0                     	;# 
   294  0EA1                     	;# 
   295  0EA2                     	;# 
   296  0EA3                     	;# 
   297  0EA4                     	;# 
   298  0EA5                     	;# 
   299  0F0F                     	;# 
   300  0F10                     	;# 
   301  0F11                     	;# 
   302  0F12                     	;# 
   303  0F13                     	;# 
   304  0F14                     	;# 
   305  0F15                     	;# 
   306  0F16                     	;# 
   307  0F17                     	;# 
   308  0F18                     	;# 
   309  0F19                     	;# 
   310  0F1A                     	;# 
   311  0F1B                     	;# 
   312  0F1C                     	;# 
   313  0F1D                     	;# 
   314  0F1E                     	;# 
   315  0F1F                     	;# 
   316  0F20                     	;# 
   317  0F21                     	;# 
   318  0F22                     	;# 
   319  0F23                     	;# 
   320  0FE4                     	;# 
   321  0FE5                     	;# 
   322  0FE6                     	;# 
   323  0FE7                     	;# 
   324  0FE8                     	;# 
   325  0FE9                     	;# 
   326  0FEA                     	;# 
   327  0FEB                     	;# 
   328  0FED                     	;# 
   329  0FEE                     	;# 
   330  0FEF                     	;# 
   331  0000                     	;# 
   332  0001                     	;# 
   333  0002                     	;# 
   334  0003                     	;# 
   335  0004                     	;# 
   336  0005                     	;# 
   337  0006                     	;# 
   338  0007                     	;# 
   339  0008                     	;# 
   340  0009                     	;# 
   341  000A                     	;# 
   342  000B                     	;# 
   343  000C                     	;# 
   344  000E                     	;# 
   345  0010                     	;# 
   346  0011                     	;# 
   347  0012                     	;# 
   348  0013                     	;# 
   349  0014                     	;# 
   350  0015                     	;# 
   351  0015                     	;# 
   352  0016                     	;# 
   353  0016                     	;# 
   354  0017                     	;# 
   355  0018                     	;# 
   356  0019                     	;# 
   357  0019                     	;# 
   358  001A                     	;# 
   359  001B                     	;# 
   360  001C                     	;# 
   361  001D                     	;# 
   362  001E                     	;# 
   363  001F                     	;# 
   364  008C                     	;# 
   365  008E                     	;# 
   366  0090                     	;# 
   367  0091                     	;# 
   368  0092                     	;# 
   369  0093                     	;# 
   370  0094                     	;# 
   371  0097                     	;# 
   372  009B                     	;# 
   373  009B                     	;# 
   374  009C                     	;# 
   375  009D                     	;# 
   376  009E                     	;# 
   377  009F                     	;# 
   378  010C                     	;# 
   379  010E                     	;# 
   380  0111                     	;# 
   381  0112                     	;# 
   382  0113                     	;# 
   383  0114                     	;# 
   384  0115                     	;# 
   385  0116                     	;# 
   386  0117                     	;# 
   387  0118                     	;# 
   388  0119                     	;# 
   389  018C                     	;# 
   390  018E                     	;# 
   391  0197                     	;# 
   392  0199                     	;# 
   393  0199                     	;# 
   394  0199                     	;# 
   395  019A                     	;# 
   396  019A                     	;# 
   397  019A                     	;# 
   398  019B                     	;# 
   399  019B                     	;# 
   400  019B                     	;# 
   401  019B                     	;# 
   402  019B                     	;# 
   403  019C                     	;# 
   404  019C                     	;# 
   405  019C                     	;# 
   406  019D                     	;# 
   407  019D                     	;# 
   408  019D                     	;# 
   409  019E                     	;# 
   410  019E                     	;# 
   411  019E                     	;# 
   412  019F                     	;# 
   413  019F                     	;# 
   414  019F                     	;# 
   415  019F                     	;# 
   416  019F                     	;# 
   417  020C                     	;# 
   418  020E                     	;# 
   419  0211                     	;# 
   420  0211                     	;# 
   421  0212                     	;# 
   422  0212                     	;# 
   423  0213                     	;# 
   424  0213                     	;# 
   425  0214                     	;# 
   426  0214                     	;# 
   427  0215                     	;# 
   428  0215                     	;# 
   429  0215                     	;# 
   430  0215                     	;# 
   431  0216                     	;# 
   432  0216                     	;# 
   433  0217                     	;# 
   434  0217                     	;# 
   435  028C                     	;# 
   436  028E                     	;# 
   437  0291                     	;# 
   438  0291                     	;# 
   439  0292                     	;# 
   440  0293                     	;# 
   441  0294                     	;# 
   442  0295                     	;# 
   443  0295                     	;# 
   444  0296                     	;# 
   445  0297                     	;# 
   446  0298                     	;# 
   447  030C                     	;# 
   448  030E                     	;# 
   449  038C                     	;# 
   450  038E                     	;# 
   451  0391                     	;# 
   452  0392                     	;# 
   453  0393                     	;# 
   454  0397                     	;# 
   455  0398                     	;# 
   456  0399                     	;# 
   457  039A                     	;# 
   458  039C                     	;# 
   459  039D                     	;# 
   460  039E                     	;# 
   461  039F                     	;# 
   462  0498                     	;# 
   463  0498                     	;# 
   464  0499                     	;# 
   465  049A                     	;# 
   466  049B                     	;# 
   467  049B                     	;# 
   468  049C                     	;# 
   469  049D                     	;# 
   470  049E                     	;# 
   471  049F                     	;# 
   472  0617                     	;# 
   473  0618                     	;# 
   474  0619                     	;# 
   475  0619                     	;# 
   476  061A                     	;# 
   477  061B                     	;# 
   478  061C                     	;# 
   479  061C                     	;# 
   480  0691                     	;# 
   481  0692                     	;# 
   482  0693                     	;# 
   483  0694                     	;# 
   484  0695                     	;# 
   485  0696                     	;# 
   486  0697                     	;# 
   487  0698                     	;# 
   488  0699                     	;# 
   489  0891                     	;# 
   490  0891                     	;# 
   491  0891                     	;# 
   492  0891                     	;# 
   493  0891                     	;# 
   494  0891                     	;# 
   495  0892                     	;# 
   496  0892                     	;# 
   497  0892                     	;# 
   498  0893                     	;# 
   499  0893                     	;# 
   500  0893                     	;# 
   501  0893                     	;# 
   502  0893                     	;# 
   503  0893                     	;# 
   504  0894                     	;# 
   505  0894                     	;# 
   506  0894                     	;# 
   507  0895                     	;# 
   508  0895                     	;# 
   509  0895                     	;# 
   510  0896                     	;# 
   511  0896                     	;# 
   512  0896                     	;# 
   513  089B                     	;# 
   514  0911                     	;# 
   515  0912                     	;# 
   516  0913                     	;# 
   517  0914                     	;# 
   518  0915                     	;# 
   519  0916                     	;# 
   520  0918                     	;# 
   521  0919                     	;# 
   522  091A                     	;# 
   523  091B                     	;# 
   524  091C                     	;# 
   525  091D                     	;# 
   526  091E                     	;# 
   527  091F                     	;# 
   528  0E0F                     	;# 
   529  0E10                     	;# 
   530  0E11                     	;# 
   531  0E12                     	;# 
   532  0E13                     	;# 
   533  0E14                     	;# 
   534  0E15                     	;# 
   535  0E18                     	;# 
   536  0E1A                     	;# 
   537  0E1B                     	;# 
   538  0E1C                     	;# 
   539  0E20                     	;# 
   540  0E21                     	;# 
   541  0E22                     	;# 
   542  0E24                     	;# 
   543  0E25                     	;# 
   544  0E28                     	;# 
   545  0E29                     	;# 
   546  0E2A                     	;# 
   547  0E2B                     	;# 
   548  0E90                     	;# 
   549  0E91                     	;# 
   550  0E92                     	;# 
   551  0E94                     	;# 
   552  0E95                     	;# 
   553  0EA0                     	;# 
   554  0EA1                     	;# 
   555  0EA2                     	;# 
   556  0EA3                     	;# 
   557  0EA4                     	;# 
   558  0EA5                     	;# 
   559  0F0F                     	;# 
   560  0F10                     	;# 
   561  0F11                     	;# 
   562  0F12                     	;# 
   563  0F13                     	;# 
   564  0F14                     	;# 
   565  0F15                     	;# 
   566  0F16                     	;# 
   567  0F17                     	;# 
   568  0F18                     	;# 
   569  0F19                     	;# 
   570  0F1A                     	;# 
   571  0F1B                     	;# 
   572  0F1C                     	;# 
   573  0F1D                     	;# 
   574  0F1E                     	;# 
   575  0F1F                     	;# 
   576  0F20                     	;# 
   577  0F21                     	;# 
   578  0F22                     	;# 
   579  0F23                     	;# 
   580  0FE4                     	;# 
   581  0FE5                     	;# 
   582  0FE6                     	;# 
   583  0FE7                     	;# 
   584  0FE8                     	;# 
   585  0FE9                     	;# 
   586  0FEA                     	;# 
   587  0FEB                     	;# 
   588  0FED                     	;# 
   589  0FEE                     	;# 
   590  0FEF                     	;# 
   591  0000                     	;# 
   592  0001                     	;# 
   593  0002                     	;# 
   594  0003                     	;# 
   595  0004                     	;# 
   596  0005                     	;# 
   597  0006                     	;# 
   598  0007                     	;# 
   599  0008                     	;# 
   600  0009                     	;# 
   601  000A                     	;# 
   602  000B                     	;# 
   603  000C                     	;# 
   604  000E                     	;# 
   605  0010                     	;# 
   606  0011                     	;# 
   607  0012                     	;# 
   608  0013                     	;# 
   609  0014                     	;# 
   610  0015                     	;# 
   611  0015                     	;# 
   612  0016                     	;# 
   613  0016                     	;# 
   614  0017                     	;# 
   615  0018                     	;# 
   616  0019                     	;# 
   617  0019                     	;# 
   618  001A                     	;# 
   619  001B                     	;# 
   620  001C                     	;# 
   621  001D                     	;# 
   622  001E                     	;# 
   623  001F                     	;# 
   624  008C                     	;# 
   625  008E                     	;# 
   626  0090                     	;# 
   627  0091                     	;# 
   628  0092                     	;# 
   629  0093                     	;# 
   630  0094                     	;# 
   631  0097                     	;# 
   632  009B                     	;# 
   633  009B                     	;# 
   634  009C                     	;# 
   635  009D                     	;# 
   636  009E                     	;# 
   637  009F                     	;# 
   638  010C                     	;# 
   639  010E                     	;# 
   640  0111                     	;# 
   641  0112                     	;# 
   642  0113                     	;# 
   643  0114                     	;# 
   644  0115                     	;# 
   645  0116                     	;# 
   646  0117                     	;# 
   647  0118                     	;# 
   648  0119                     	;# 
   649  018C                     	;# 
   650  018E                     	;# 
   651  0197                     	;# 
   652  0199                     	;# 
   653  0199                     	;# 
   654  0199                     	;# 
   655  019A                     	;# 
   656  019A                     	;# 
   657  019A                     	;# 
   658  019B                     	;# 
   659  019B                     	;# 
   660  019B                     	;# 
   661  019B                     	;# 
   662  019B                     	;# 
   663  019C                     	;# 
   664  019C                     	;# 
   665  019C                     	;# 
   666  019D                     	;# 
   667  019D                     	;# 
   668  019D                     	;# 
   669  019E                     	;# 
   670  019E                     	;# 
   671  019E                     	;# 
   672  019F                     	;# 
   673  019F                     	;# 
   674  019F                     	;# 
   675  019F                     	;# 
   676  019F                     	;# 
   677  020C                     	;# 
   678  020E                     	;# 
   679  0211                     	;# 
   680  0211                     	;# 
   681  0212                     	;# 
   682  0212                     	;# 
   683  0213                     	;# 
   684  0213                     	;# 
   685  0214                     	;# 
   686  0214                     	;# 
   687  0215                     	;# 
   688  0215                     	;# 
   689  0215                     	;# 
   690  0215                     	;# 
   691  0216                     	;# 
   692  0216                     	;# 
   693  0217                     	;# 
   694  0217                     	;# 
   695  028C                     	;# 
   696  028E                     	;# 
   697  0291                     	;# 
   698  0291                     	;# 
   699  0292                     	;# 
   700  0293                     	;# 
   701  0294                     	;# 
   702  0295                     	;# 
   703  0295                     	;# 
   704  0296                     	;# 
   705  0297                     	;# 
   706  0298                     	;# 
   707  030C                     	;# 
   708  030E                     	;# 
   709  038C                     	;# 
   710  038E                     	;# 
   711  0391                     	;# 
   712  0392                     	;# 
   713  0393                     	;# 
   714  0397                     	;# 
   715  0398                     	;# 
   716  0399                     	;# 
   717  039A                     	;# 
   718  039C                     	;# 
   719  039D                     	;# 
   720  039E                     	;# 
   721  039F                     	;# 
   722  0498                     	;# 
   723  0498                     	;# 
   724  0499                     	;# 
   725  049A                     	;# 
   726  049B                     	;# 
   727  049B                     	;# 
   728  049C                     	;# 
   729  049D                     	;# 
   730  049E                     	;# 
   731  049F                     	;# 
   732  0617                     	;# 
   733  0618                     	;# 
   734  0619                     	;# 
   735  0619                     	;# 
   736  061A                     	;# 
   737  061B                     	;# 
   738  061C                     	;# 
   739  061C                     	;# 
   740  0691                     	;# 
   741  0692                     	;# 
   742  0693                     	;# 
   743  0694                     	;# 
   744  0695                     	;# 
   745  0696                     	;# 
   746  0697                     	;# 
   747  0698                     	;# 
   748  0699                     	;# 
   749  0891                     	;# 
   750  0891                     	;# 
   751  0891                     	;# 
   752  0891                     	;# 
   753  0891                     	;# 
   754  0891                     	;# 
   755  0892                     	;# 
   756  0892                     	;# 
   757  0892                     	;# 
   758  0893                     	;# 
   759  0893                     	;# 
   760  0893                     	;# 
   761  0893                     	;# 
   762  0893                     	;# 
   763  0893                     	;# 
   764  0894                     	;# 
   765  0894                     	;# 
   766  0894                     	;# 
   767  0895                     	;# 
   768  0895                     	;# 
   769  0895                     	;# 
   770  0896                     	;# 
   771  0896                     	;# 
   772  0896                     	;# 
   773  089B                     	;# 
   774  0911                     	;# 
   775  0912                     	;# 
   776  0913                     	;# 
   777  0914                     	;# 
   778  0915                     	;# 
   779  0916                     	;# 
   780  0918                     	;# 
   781  0919                     	;# 
   782  091A                     	;# 
   783  091B                     	;# 
   784  091C                     	;# 
   785  091D                     	;# 
   786  091E                     	;# 
   787  091F                     	;# 
   788  0E0F                     	;# 
   789  0E10                     	;# 
   790  0E11                     	;# 
   791  0E12                     	;# 
   792  0E13                     	;# 
   793  0E14                     	;# 
   794  0E15                     	;# 
   795  0E18                     	;# 
   796  0E1A                     	;# 
   797  0E1B                     	;# 
   798  0E1C                     	;# 
   799  0E20                     	;# 
   800  0E21                     	;# 
   801  0E22                     	;# 
   802  0E24                     	;# 
   803  0E25                     	;# 
   804  0E28                     	;# 
   805  0E29                     	;# 
   806  0E2A                     	;# 
   807  0E2B                     	;# 
   808  0E90                     	;# 
   809  0E91                     	;# 
   810  0E92                     	;# 
   811  0E94                     	;# 
   812  0E95                     	;# 
   813  0EA0                     	;# 
   814  0EA1                     	;# 
   815  0EA2                     	;# 
   816  0EA3                     	;# 
   817  0EA4                     	;# 
   818  0EA5                     	;# 
   819  0F0F                     	;# 
   820  0F10                     	;# 
   821  0F11                     	;# 
   822  0F12                     	;# 
   823  0F13                     	;# 
   824  0F14                     	;# 
   825  0F15                     	;# 
   826  0F16                     	;# 
   827  0F17                     	;# 
   828  0F18                     	;# 
   829  0F19                     	;# 
   830  0F1A                     	;# 
   831  0F1B                     	;# 
   832  0F1C                     	;# 
   833  0F1D                     	;# 
   834  0F1E                     	;# 
   835  0F1F                     	;# 
   836  0F20                     	;# 
   837  0F21                     	;# 
   838  0F22                     	;# 
   839  0F23                     	;# 
   840  0FE4                     	;# 
   841  0FE5                     	;# 
   842  0FE6                     	;# 
   843  0FE7                     	;# 
   844  0FE8                     	;# 
   845  0FE9                     	;# 
   846  0FEA                     	;# 
   847  0FEB                     	;# 
   848  0FED                     	;# 
   849  0FEE                     	;# 
   850  0FEF                     	;# 
   851  0000                     	;# 
   852  0001                     	;# 
   853  0002                     	;# 
   854  0003                     	;# 
   855  0004                     	;# 
   856  0005                     	;# 
   857  0006                     	;# 
   858  0007                     	;# 
   859  0008                     	;# 
   860  0009                     	;# 
   861  000A                     	;# 
   862  000B                     	;# 
   863  000C                     	;# 
   864  000E                     	;# 
   865  0010                     	;# 
   866  0011                     	;# 
   867  0012                     	;# 
   868  0013                     	;# 
   869  0014                     	;# 
   870  0015                     	;# 
   871  0015                     	;# 
   872  0016                     	;# 
   873  0016                     	;# 
   874  0017                     	;# 
   875  0018                     	;# 
   876  0019                     	;# 
   877  0019                     	;# 
   878  001A                     	;# 
   879  001B                     	;# 
   880  001C                     	;# 
   881  001D                     	;# 
   882  001E                     	;# 
   883  001F                     	;# 
   884  008C                     	;# 
   885  008E                     	;# 
   886  0090                     	;# 
   887  0091                     	;# 
   888  0092                     	;# 
   889  0093                     	;# 
   890  0094                     	;# 
   891  0097                     	;# 
   892  009B                     	;# 
   893  009B                     	;# 
   894  009C                     	;# 
   895  009D                     	;# 
   896  009E                     	;# 
   897  009F                     	;# 
   898  010C                     	;# 
   899  010E                     	;# 
   900  0111                     	;# 
   901  0112                     	;# 
   902  0113                     	;# 
   903  0114                     	;# 
   904  0115                     	;# 
   905  0116                     	;# 
   906  0117                     	;# 
   907  0118                     	;# 
   908  0119                     	;# 
   909  018C                     	;# 
   910  018E                     	;# 
   911  0197                     	;# 
   912  0199                     	;# 
   913  0199                     	;# 
   914  0199                     	;# 
   915  019A                     	;# 
   916  019A                     	;# 
   917  019A                     	;# 
   918  019B                     	;# 
   919  019B                     	;# 
   920  019B                     	;# 
   921  019B                     	;# 
   922  019B                     	;# 
   923  019C                     	;# 
   924  019C                     	;# 
   925  019C                     	;# 
   926  019D                     	;# 
   927  019D                     	;# 
   928  019D                     	;# 
   929  019E                     	;# 
   930  019E                     	;# 
   931  019E                     	;# 
   932  019F                     	;# 
   933  019F                     	;# 
   934  019F                     	;# 
   935  019F                     	;# 
   936  019F                     	;# 
   937  020C                     	;# 
   938  020E                     	;# 
   939  0211                     	;# 
   940  0211                     	;# 
   941  0212                     	;# 
   942  0212                     	;# 
   943  0213                     	;# 
   944  0213                     	;# 
   945  0214                     	;# 
   946  0214                     	;# 
   947  0215                     	;# 
   948  0215                     	;# 
   949  0215                     	;# 
   950  0215                     	;# 
   951  0216                     	;# 
   952  0216                     	;# 
   953  0217                     	;# 
   954  0217                     	;# 
   955  028C                     	;# 
   956  028E                     	;# 
   957  0291                     	;# 
   958  0291                     	;# 
   959  0292                     	;# 
   960  0293                     	;# 
   961  0294                     	;# 
   962  0295                     	;# 
   963  0295                     	;# 
   964  0296                     	;# 
   965  0297                     	;# 
   966  0298                     	;# 
   967  030C                     	;# 
   968  030E                     	;# 
   969  038C                     	;# 
   970  038E                     	;# 
   971  0391                     	;# 
   972  0392                     	;# 
   973  0393                     	;# 
   974  0397                     	;# 
   975  0398                     	;# 
   976  0399                     	;# 
   977  039A                     	;# 
   978  039C                     	;# 
   979  039D                     	;# 
   980  039E                     	;# 
   981  039F                     	;# 
   982  0498                     	;# 
   983  0498                     	;# 
   984  0499                     	;# 
   985  049A                     	;# 
   986  049B                     	;# 
   987  049B                     	;# 
   988  049C                     	;# 
   989  049D                     	;# 
   990  049E                     	;# 
   991  049F                     	;# 
   992  0617                     	;# 
   993  0618                     	;# 
   994  0619                     	;# 
   995  0619                     	;# 
   996  061A                     	;# 
   997  061B                     	;# 
   998  061C                     	;# 
   999  061C                     	;# 
  1000  0691                     	;# 
  1001  0692                     	;# 
  1002  0693                     	;# 
  1003  0694                     	;# 
  1004  0695                     	;# 
  1005  0696                     	;# 
  1006  0697                     	;# 
  1007  0698                     	;# 
  1008  0699                     	;# 
  1009  0891                     	;# 
  1010  0891                     	;# 
  1011  0891                     	;# 
  1012  0891                     	;# 
  1013  0891                     	;# 
  1014  0891                     	;# 
  1015  0892                     	;# 
  1016  0892                     	;# 
  1017  0892                     	;# 
  1018  0893                     	;# 
  1019  0893                     	;# 
  1020  0893                     	;# 
  1021  0893                     	;# 
  1022  0893                     	;# 
  1023  0893                     	;# 
  1024  0894                     	;# 
  1025  0894                     	;# 
  1026  0894                     	;# 
  1027  0895                     	;# 
  1028  0895                     	;# 
  1029  0895                     	;# 
  1030  0896                     	;# 
  1031  0896                     	;# 
  1032  0896                     	;# 
  1033  089B                     	;# 
  1034  0911                     	;# 
  1035  0912                     	;# 
  1036  0913                     	;# 
  1037  0914                     	;# 
  1038  0915                     	;# 
  1039  0916                     	;# 
  1040  0918                     	;# 
  1041  0919                     	;# 
  1042  091A                     	;# 
  1043  091B                     	;# 
  1044  091C                     	;# 
  1045  091D                     	;# 
  1046  091E                     	;# 
  1047  091F                     	;# 
  1048  0E0F                     	;# 
  1049  0E10                     	;# 
  1050  0E11                     	;# 
  1051  0E12                     	;# 
  1052  0E13                     	;# 
  1053  0E14                     	;# 
  1054  0E15                     	;# 
  1055  0E18                     	;# 
  1056  0E1A                     	;# 
  1057  0E1B                     	;# 
  1058  0E1C                     	;# 
  1059  0E20                     	;# 
  1060  0E21                     	;# 
  1061  0E22                     	;# 
  1062  0E24                     	;# 
  1063  0E25                     	;# 
  1064  0E28                     	;# 
  1065  0E29                     	;# 
  1066  0E2A                     	;# 
  1067  0E2B                     	;# 
  1068  0E90                     	;# 
  1069  0E91                     	;# 
  1070  0E92                     	;# 
  1071  0E94                     	;# 
  1072  0E95                     	;# 
  1073  0EA0                     	;# 
  1074  0EA1                     	;# 
  1075  0EA2                     	;# 
  1076  0EA3                     	;# 
  1077  0EA4                     	;# 
  1078  0EA5                     	;# 
  1079  0F0F                     	;# 
  1080  0F10                     	;# 
  1081  0F11                     	;# 
  1082  0F12                     	;# 
  1083  0F13                     	;# 
  1084  0F14                     	;# 
  1085  0F15                     	;# 
  1086  0F16                     	;# 
  1087  0F17                     	;# 
  1088  0F18                     	;# 
  1089  0F19                     	;# 
  1090  0F1A                     	;# 
  1091  0F1B                     	;# 
  1092  0F1C                     	;# 
  1093  0F1D                     	;# 
  1094  0F1E                     	;# 
  1095  0F1F                     	;# 
  1096  0F20                     	;# 
  1097  0F21                     	;# 
  1098  0F22                     	;# 
  1099  0F23                     	;# 
  1100  0FE4                     	;# 
  1101  0FE5                     	;# 
  1102  0FE6                     	;# 
  1103  0FE7                     	;# 
  1104  0FE8                     	;# 
  1105  0FE9                     	;# 
  1106  0FEA                     	;# 
  1107  0FEB                     	;# 
  1108  0FED                     	;# 
  1109  0FEE                     	;# 
  1110  0FEF                     	;# 
  1111  0000                     	;# 
  1112  0001                     	;# 
  1113  0002                     	;# 
  1114  0003                     	;# 
  1115  0004                     	;# 
  1116  0005                     	;# 
  1117  0006                     	;# 
  1118  0007                     	;# 
  1119  0008                     	;# 
  1120  0009                     	;# 
  1121  000A                     	;# 
  1122  000B                     	;# 
  1123  000C                     	;# 
  1124  000E                     	;# 
  1125  0010                     	;# 
  1126  0011                     	;# 
  1127  0012                     	;# 
  1128  0013                     	;# 
  1129  0014                     	;# 
  1130  0015                     	;# 
  1131  0015                     	;# 
  1132  0016                     	;# 
  1133  0016                     	;# 
  1134  0017                     	;# 
  1135  0018                     	;# 
  1136  0019                     	;# 
  1137  0019                     	;# 
  1138  001A                     	;# 
  1139  001B                     	;# 
  1140  001C                     	;# 
  1141  001D                     	;# 
  1142  001E                     	;# 
  1143  001F                     	;# 
  1144  008C                     	;# 
  1145  008E                     	;# 
  1146  0090                     	;# 
  1147  0091                     	;# 
  1148  0092                     	;# 
  1149  0093                     	;# 
  1150  0094                     	;# 
  1151  0097                     	;# 
  1152  009B                     	;# 
  1153  009B                     	;# 
  1154  009C                     	;# 
  1155  009D                     	;# 
  1156  009E                     	;# 
  1157  009F                     	;# 
  1158  010C                     	;# 
  1159  010E                     	;# 
  1160  0111                     	;# 
  1161  0112                     	;# 
  1162  0113                     	;# 
  1163  0114                     	;# 
  1164  0115                     	;# 
  1165  0116                     	;# 
  1166  0117                     	;# 
  1167  0118                     	;# 
  1168  0119                     	;# 
  1169  018C                     	;# 
  1170  018E                     	;# 
  1171  0197                     	;# 
  1172  0199                     	;# 
  1173  0199                     	;# 
  1174  0199                     	;# 
  1175  019A                     	;# 
  1176  019A                     	;# 
  1177  019A                     	;# 
  1178  019B                     	;# 
  1179  019B                     	;# 
  1180  019B                     	;# 
  1181  019B                     	;# 
  1182  019B                     	;# 
  1183  019C                     	;# 
  1184  019C                     	;# 
  1185  019C                     	;# 
  1186  019D                     	;# 
  1187  019D                     	;# 
  1188  019D                     	;# 
  1189  019E                     	;# 
  1190  019E                     	;# 
  1191  019E                     	;# 
  1192  019F                     	;# 
  1193  019F                     	;# 
  1194  019F                     	;# 
  1195  019F                     	;# 
  1196  019F                     	;# 
  1197  020C                     	;# 
  1198  020E                     	;# 
  1199  0211                     	;# 
  1200  0211                     	;# 
  1201  0212                     	;# 
  1202  0212                     	;# 
  1203  0213                     	;# 
  1204  0213                     	;# 
  1205  0214                     	;# 
  1206  0214                     	;# 
  1207  0215                     	;# 
  1208  0215                     	;# 
  1209  0215                     	;# 
  1210  0215                     	;# 
  1211  0216                     	;# 
  1212  0216                     	;# 
  1213  0217                     	;# 
  1214  0217                     	;# 
  1215  028C                     	;# 
  1216  028E                     	;# 
  1217  0291                     	;# 
  1218  0291                     	;# 
  1219  0292                     	;# 
  1220  0293                     	;# 
  1221  0294                     	;# 
  1222  0295                     	;# 
  1223  0295                     	;# 
  1224  0296                     	;# 
  1225  0297                     	;# 
  1226  0298                     	;# 
  1227  030C                     	;# 
  1228  030E                     	;# 
  1229  038C                     	;# 
  1230  038E                     	;# 
  1231  0391                     	;# 
  1232  0392                     	;# 
  1233  0393                     	;# 
  1234  0397                     	;# 
  1235  0398                     	;# 
  1236  0399                     	;# 
  1237  039A                     	;# 
  1238  039C                     	;# 
  1239  039D                     	;# 
  1240  039E                     	;# 
  1241  039F                     	;# 
  1242  0498                     	;# 
  1243  0498                     	;# 
  1244  0499                     	;# 
  1245  049A                     	;# 
  1246  049B                     	;# 
  1247  049B                     	;# 
  1248  049C                     	;# 
  1249  049D                     	;# 
  1250  049E                     	;# 
  1251  049F                     	;# 
  1252  0617                     	;# 
  1253  0618                     	;# 
  1254  0619                     	;# 
  1255  0619                     	;# 
  1256  061A                     	;# 
  1257  061B                     	;# 
  1258  061C                     	;# 
  1259  061C                     	;# 
  1260  0691                     	;# 
  1261  0692                     	;# 
  1262  0693                     	;# 
  1263  0694                     	;# 
  1264  0695                     	;# 
  1265  0696                     	;# 
  1266  0697                     	;# 
  1267  0698                     	;# 
  1268  0699                     	;# 
  1269  0891                     	;# 
  1270  0891                     	;# 
  1271  0891                     	;# 
  1272  0891                     	;# 
  1273  0891                     	;# 
  1274  0891                     	;# 
  1275  0892                     	;# 
  1276  0892                     	;# 
  1277  0892                     	;# 
  1278  0893                     	;# 
  1279  0893                     	;# 
  1280  0893                     	;# 
  1281  0893                     	;# 
  1282  0893                     	;# 
  1283  0893                     	;# 
  1284  0894                     	;# 
  1285  0894                     	;# 
  1286  0894                     	;# 
  1287  0895                     	;# 
  1288  0895                     	;# 
  1289  0895                     	;# 
  1290  0896                     	;# 
  1291  0896                     	;# 
  1292  0896                     	;# 
  1293  089B                     	;# 
  1294  0911                     	;# 
  1295  0912                     	;# 
  1296  0913                     	;# 
  1297  0914                     	;# 
  1298  0915                     	;# 
  1299  0916                     	;# 
  1300  0918                     	;# 
  1301  0919                     	;# 
  1302  091A                     	;# 
  1303  091B                     	;# 
  1304  091C                     	;# 
  1305  091D                     	;# 
  1306  091E                     	;# 
  1307  091F                     	;# 
  1308  0E0F                     	;# 
  1309  0E10                     	;# 
  1310  0E11                     	;# 
  1311  0E12                     	;# 
  1312  0E13                     	;# 
  1313  0E14                     	;# 
  1314  0E15                     	;# 
  1315  0E18                     	;# 
  1316  0E1A                     	;# 
  1317  0E1B                     	;# 
  1318  0E1C                     	;# 
  1319  0E20                     	;# 
  1320  0E21                     	;# 
  1321  0E22                     	;# 
  1322  0E24                     	;# 
  1323  0E25                     	;# 
  1324  0E28                     	;# 
  1325  0E29                     	;# 
  1326  0E2A                     	;# 
  1327  0E2B                     	;# 
  1328  0E90                     	;# 
  1329  0E91                     	;# 
  1330  0E92                     	;# 
  1331  0E94                     	;# 
  1332  0E95                     	;# 
  1333  0EA0                     	;# 
  1334  0EA1                     	;# 
  1335  0EA2                     	;# 
  1336  0EA3                     	;# 
  1337  0EA4                     	;# 
  1338  0EA5                     	;# 
  1339  0F0F                     	;# 
  1340  0F10                     	;# 
  1341  0F11                     	;# 
  1342  0F12                     	;# 
  1343  0F13                     	;# 
  1344  0F14                     	;# 
  1345  0F15                     	;# 
  1346  0F16                     	;# 
  1347  0F17                     	;# 
  1348  0F18                     	;# 
  1349  0F19                     	;# 
  1350  0F1A                     	;# 
  1351  0F1B                     	;# 
  1352  0F1C                     	;# 
  1353  0F1D                     	;# 
  1354  0F1E                     	;# 
  1355  0F1F                     	;# 
  1356  0F20                     	;# 
  1357  0F21                     	;# 
  1358  0F22                     	;# 
  1359  0F23                     	;# 
  1360  0FE4                     	;# 
  1361  0FE5                     	;# 
  1362  0FE6                     	;# 
  1363  0FE7                     	;# 
  1364  0FE8                     	;# 
  1365  0FE9                     	;# 
  1366  0FEA                     	;# 
  1367  0FEB                     	;# 
  1368  0FED                     	;# 
  1369  0FEE                     	;# 
  1370  0FEF                     	;# 
  1371  0000                     	;# 
  1372  0001                     	;# 
  1373  0002                     	;# 
  1374  0003                     	;# 
  1375  0004                     	;# 
  1376  0005                     	;# 
  1377  0006                     	;# 
  1378  0007                     	;# 
  1379  0008                     	;# 
  1380  0009                     	;# 
  1381  000A                     	;# 
  1382  000B                     	;# 
  1383  000C                     	;# 
  1384  000E                     	;# 
  1385  0010                     	;# 
  1386  0011                     	;# 
  1387  0012                     	;# 
  1388  0013                     	;# 
  1389  0014                     	;# 
  1390  0015                     	;# 
  1391  0015                     	;# 
  1392  0016                     	;# 
  1393  0016                     	;# 
  1394  0017                     	;# 
  1395  0018                     	;# 
  1396  0019                     	;# 
  1397  0019                     	;# 
  1398  001A                     	;# 
  1399  001B                     	;# 
  1400  001C                     	;# 
  1401  001D                     	;# 
  1402  001E                     	;# 
  1403  001F                     	;# 
  1404  008C                     	;# 
  1405  008E                     	;# 
  1406  0090                     	;# 
  1407  0091                     	;# 
  1408  0092                     	;# 
  1409  0093                     	;# 
  1410  0094                     	;# 
  1411  0097                     	;# 
  1412  009B                     	;# 
  1413  009B                     	;# 
  1414  009C                     	;# 
  1415  009D                     	;# 
  1416  009E                     	;# 
  1417  009F                     	;# 
  1418  010C                     	;# 
  1419  010E                     	;# 
  1420  0111                     	;# 
  1421  0112                     	;# 
  1422  0113                     	;# 
  1423  0114                     	;# 
  1424  0115                     	;# 
  1425  0116                     	;# 
  1426  0117                     	;# 
  1427  0118                     	;# 
  1428  0119                     	;# 
  1429  018C                     	;# 
  1430  018E                     	;# 
  1431  0197                     	;# 
  1432  0199                     	;# 
  1433  0199                     	;# 
  1434  0199                     	;# 
  1435  019A                     	;# 
  1436  019A                     	;# 
  1437  019A                     	;# 
  1438  019B                     	;# 
  1439  019B                     	;# 
  1440  019B                     	;# 
  1441  019B                     	;# 
  1442  019B                     	;# 
  1443  019C                     	;# 
  1444  019C                     	;# 
  1445  019C                     	;# 
  1446  019D                     	;# 
  1447  019D                     	;# 
  1448  019D                     	;# 
  1449  019E                     	;# 
  1450  019E                     	;# 
  1451  019E                     	;# 
  1452  019F                     	;# 
  1453  019F                     	;# 
  1454  019F                     	;# 
  1455  019F                     	;# 
  1456  019F                     	;# 
  1457  020C                     	;# 
  1458  020E                     	;# 
  1459  0211                     	;# 
  1460  0211                     	;# 
  1461  0212                     	;# 
  1462  0212                     	;# 
  1463  0213                     	;# 
  1464  0213                     	;# 
  1465  0214                     	;# 
  1466  0214                     	;# 
  1467  0215                     	;# 
  1468  0215                     	;# 
  1469  0215                     	;# 
  1470  0215                     	;# 
  1471  0216                     	;# 
  1472  0216                     	;# 
  1473  0217                     	;# 
  1474  0217                     	;# 
  1475  028C                     	;# 
  1476  028E                     	;# 
  1477  0291                     	;# 
  1478  0291                     	;# 
  1479  0292                     	;# 
  1480  0293                     	;# 
  1481  0294                     	;# 
  1482  0295                     	;# 
  1483  0295                     	;# 
  1484  0296                     	;# 
  1485  0297                     	;# 
  1486  0298                     	;# 
  1487  030C                     	;# 
  1488  030E                     	;# 
  1489  038C                     	;# 
  1490  038E                     	;# 
  1491  0391                     	;# 
  1492  0392                     	;# 
  1493  0393                     	;# 
  1494  0397                     	;# 
  1495  0398                     	;# 
  1496  0399                     	;# 
  1497  039A                     	;# 
  1498  039C                     	;# 
  1499  039D                     	;# 
  1500  039E                     	;# 
  1501  039F                     	;# 
  1502  0498                     	;# 
  1503  0498                     	;# 
  1504  0499                     	;# 
  1505  049A                     	;# 
  1506  049B                     	;# 
  1507  049B                     	;# 
  1508  049C                     	;# 
  1509  049D                     	;# 
  1510  049E                     	;# 
  1511  049F                     	;# 
  1512  0617                     	;# 
  1513  0618                     	;# 
  1514  0619                     	;# 
  1515  0619                     	;# 
  1516  061A                     	;# 
  1517  061B                     	;# 
  1518  061C                     	;# 
  1519  061C                     	;# 
  1520  0691                     	;# 
  1521  0692                     	;# 
  1522  0693                     	;# 
  1523  0694                     	;# 
  1524  0695                     	;# 
  1525  0696                     	;# 
  1526  0697                     	;# 
  1527  0698                     	;# 
  1528  0699                     	;# 
  1529  0891                     	;# 
  1530  0891                     	;# 
  1531  0891                     	;# 
  1532  0891                     	;# 
  1533  0891                     	;# 
  1534  0891                     	;# 
  1535  0892                     	;# 
  1536  0892                     	;# 
  1537  0892                     	;# 
  1538  0893                     	;# 
  1539  0893                     	;# 
  1540  0893                     	;# 
  1541  0893                     	;# 
  1542  0893                     	;# 
  1543  0893                     	;# 
  1544  0894                     	;# 
  1545  0894                     	;# 
  1546  0894                     	;# 
  1547  0895                     	;# 
  1548  0895                     	;# 
  1549  0895                     	;# 
  1550  0896                     	;# 
  1551  0896                     	;# 
  1552  0896                     	;# 
  1553  089B                     	;# 
  1554  0911                     	;# 
  1555  0912                     	;# 
  1556  0913                     	;# 
  1557  0914                     	;# 
  1558  0915                     	;# 
  1559  0916                     	;# 
  1560  0918                     	;# 
  1561  0919                     	;# 
  1562  091A                     	;# 
  1563  091B                     	;# 
  1564  091C                     	;# 
  1565  091D                     	;# 
  1566  091E                     	;# 
  1567  091F                     	;# 
  1568  0E0F                     	;# 
  1569  0E10                     	;# 
  1570  0E11                     	;# 
  1571  0E12                     	;# 
  1572  0E13                     	;# 
  1573  0E14                     	;# 
  1574  0E15                     	;# 
  1575  0E18                     	;# 
  1576  0E1A                     	;# 
  1577  0E1B                     	;# 
  1578  0E1C                     	;# 
  1579  0E20                     	;# 
  1580  0E21                     	;# 
  1581  0E22                     	;# 
  1582  0E24                     	;# 
  1583  0E25                     	;# 
  1584  0E28                     	;# 
  1585  0E29                     	;# 
  1586  0E2A                     	;# 
  1587  0E2B                     	;# 
  1588  0E90                     	;# 
  1589  0E91                     	;# 
  1590  0E92                     	;# 
  1591  0E94                     	;# 
  1592  0E95                     	;# 
  1593  0EA0                     	;# 
  1594  0EA1                     	;# 
  1595  0EA2                     	;# 
  1596  0EA3                     	;# 
  1597  0EA4                     	;# 
  1598  0EA5                     	;# 
  1599  0F0F                     	;# 
  1600  0F10                     	;# 
  1601  0F11                     	;# 
  1602  0F12                     	;# 
  1603  0F13                     	;# 
  1604  0F14                     	;# 
  1605  0F15                     	;# 
  1606  0F16                     	;# 
  1607  0F17                     	;# 
  1608  0F18                     	;# 
  1609  0F19                     	;# 
  1610  0F1A                     	;# 
  1611  0F1B                     	;# 
  1612  0F1C                     	;# 
  1613  0F1D                     	;# 
  1614  0F1E                     	;# 
  1615  0F1F                     	;# 
  1616  0F20                     	;# 
  1617  0F21                     	;# 
  1618  0F22                     	;# 
  1619  0F23                     	;# 
  1620  0FE4                     	;# 
  1621  0FE5                     	;# 
  1622  0FE6                     	;# 
  1623  0FE7                     	;# 
  1624  0FE8                     	;# 
  1625  0FE9                     	;# 
  1626  0FEA                     	;# 
  1627  0FEB                     	;# 
  1628  0FED                     	;# 
  1629  0FEE                     	;# 
  1630  0FEF                     	;# 
  1631                           
  1632 ;; Function _SPI1_Isr is unused but had its address taken
  1633  0000                     
  1634                           	psect	idataBANK0
  1635  021B                     __pidataBANK0:
  1636                           
  1637                           ;initializer for NRF_RX_Init@F5216
  1638  021B  3441               	retlw	65
  1639  021C  3441               	retlw	65
  1640  021D  3441               	retlw	65
  1641  021E  3441               	retlw	65
  1642  021F  3441               	retlw	65
  1643                           
  1644                           ;initializer for NRF_TX_Init@F5213
  1645  0220  3441               	retlw	65
  1646  0221  3441               	retlw	65
  1647  0222  3441               	retlw	65
  1648  0223  3441               	retlw	65
  1649  0224  3441               	retlw	65
  1650                           
  1651                           ;initializer for main@F5229
  1652  0225  3455               	retlw	85
  1653                           
  1654                           	psect	stringtext1
  1655  0261                     __pstringtext1:
  1656  0261                     _spi1_configuration:
  1657  0261  3400               	retlw	0
  1658  0262  34C0               	retlw	192
  1659  0263  3401               	retlw	1
  1660  0264  3400               	retlw	0
  1661  0265                     __end_of_spi1_configuration:
  1662                           
  1663                           	psect	nvBANK0
  1664  002B                     __pnvBANK0:
  1665  002B                     _IOCAF5_InterruptHandler:
  1666  002B                     	ds	2
  1667  002D                     _MSSP1_InterruptHandler:
  1668  002D                     	ds	2
  1669  000E                     _PORTCbits	set	14
  1670  0010                     _PIR0bits	set	16
  1671  0011                     _PIR1bits	set	17
  1672  008C                     _TRISAbits	set	140
  1673  008E                     _TRISC	set	142
  1674  008C                     _TRISA	set	140
  1675  0090                     _PIE0bits	set	144
  1676  0097                     _WDTCON	set	151
  1677  008E                     _TRISCbits	set	142
  1678  0091                     _PIE1bits	set	145
  1679  010E                     _LATCbits	set	270
  1680  010C                     _LATAbits	set	268
  1681  010E                     _LATC	set	270
  1682  010C                     _LATA	set	268
  1683  018C                     _ANSELA	set	396
  1684  018E                     _ANSELC	set	398
  1685  020E                     _WPUC	set	526
  1686  020C                     _WPUA	set	524
  1687  0211                     _SSP1BUF	set	529
  1688  0216                     _SSP1CON2	set	534
  1689  0215                     _SSP1CON1bits	set	533
  1690  0212                     _SSP1ADD	set	530
  1691  0215                     _SSP1CON1	set	533
  1692  0214                     _SSP1STAT	set	532
  1693  028E                     _ODCONC	set	654
  1694  028C                     _ODCONA	set	652
  1695  030E                     _SLRCONC	set	782
  1696  030C                     _SLRCONA	set	780
  1697  0391                     _IOCAPbits	set	913
  1698  0392                     _IOCANbits	set	914
  1699  0393                     _IOCAFbits	set	915
  1700  038E                     _INLVLC	set	910
  1701  038C                     _INLVLA	set	908
  1702  0916                     _PMD5	set	2326
  1703  0915                     _PMD4	set	2325
  1704  0914                     _PMD3	set	2324
  1705  0913                     _PMD2	set	2323
  1706  0912                     _PMD1	set	2322
  1707  0911                     _PMD0	set	2321
  1708  091E                     _OSCTUNE	set	2334
  1709  091F                     _OSCFRQ	set	2335
  1710  091D                     _OSCEN	set	2333
  1711  091B                     _OSCCON3	set	2331
  1712  0919                     _OSCCON1	set	2329
  1713  0E21                     _SSP1DATPPS	set	3617
  1714  0E20                     _SSP1CLKPPS	set	3616
  1715  0EA2                     _RC2PPS	set	3746
  1716  0EA0                     _RC0PPS	set	3744
  1717                           
  1718                           	psect	cinit
  1719  0016                     start_initialization:	
  1720                           ; #config settings
  1721                           
  1722  0016                     __initialization:
  1723                           
  1724                           ; Initialize objects allocated to BANK0
  1725  0016  301B               	movlw	low __pidataBANK0
  1726  0017  0084               	movwf	4
  1727  0018  3082               	movlw	(high __pidataBANK0)| (0+128)
  1728  0019  0085               	movwf	5
  1729  001A  3020               	movlw	low __pdataBANK0
  1730  001B  0086               	movwf	6
  1731  001C  3000               	movlw	high __pdataBANK0
  1732  001D  0087               	movwf	7
  1733  001E  300B               	movlw	11
  1734  001F  3182  2249  3180   	fcall	init_ram
  1735  0022                     end_of_initialization:	
  1736                           ;End of C runtime variable initialization code
  1737                           
  1738  0022                     __end_of__initialization:
  1739  0022  107E               	bcf	int$flags,0	;clear compiler interrupt flag (level 1)
  1740  0023  0020               	movlb	0
  1741  0024  2825               	ljmp	_main	;jump to C main() function
  1742                           
  1743                           	psect	dataBANK0
  1744  0020                     __pdataBANK0:
  1745  0020                     NRF_RX_Init@F5216:
  1746  0020                     	ds	5
  1747  0025                     NRF_TX_Init@F5213:
  1748  0025                     	ds	5
  1749  002A                     main@F5229:
  1750  002A                     	ds	1
  1751                           
  1752                           	psect	inittext
  1753  0249                     init_ram:
  1754  0249  00FE               	movwf	btemp
  1755  024A                     initloop:
  1756  024A  0012               	moviw fsr0++
  1757  024B  001E               	movwi fsr1++
  1758  024C  0BFE               	decfsz	btemp,f
  1759  024D  2A4A               	goto	initloop
  1760  024E  3400               	retlw	0
  1761                           
  1762                           	psect	cstackCOMMON
  1763  0070                     __pcstackCOMMON:
  1764  0070                     ?_SPI1_SetInterruptHandler:
  1765  0070                     ?_PMD_Initialize:	
  1766                           ; 1 bytes @ 0x0
  1767                           
  1768  0070                     ??_PMD_Initialize:	
  1769                           ; 1 bytes @ 0x0
  1770                           
  1771  0070                     ?_PIN_MANAGER_Initialize:	
  1772                           ; 1 bytes @ 0x0
  1773                           
  1774  0070                     ?_OSCILLATOR_Initialize:	
  1775                           ; 1 bytes @ 0x0
  1776                           
  1777  0070                     ??_OSCILLATOR_Initialize:	
  1778                           ; 1 bytes @ 0x0
  1779                           
  1780  0070                     ?_WDT_Initialize:	
  1781                           ; 1 bytes @ 0x0
  1782                           
  1783  0070                     ??_WDT_Initialize:	
  1784                           ; 1 bytes @ 0x0
  1785                           
  1786  0070                     ?_PIN_MANAGER_IOC:	
  1787                           ; 1 bytes @ 0x0
  1788                           
  1789  0070                     ??_PIN_MANAGER_IOC:	
  1790                           ; 1 bytes @ 0x0
  1791                           
  1792  0070                     ?_IOCAF5_SetInterruptHandler:	
  1793                           ; 1 bytes @ 0x0
  1794                           
  1795  0070                     ?_IOCAF5_DefaultInterruptHandler:	
  1796                           ; 1 bytes @ 0x0
  1797                           
  1798  0070                     ??_IOCAF5_DefaultInterruptHandler:	
  1799                           ; 1 bytes @ 0x0
  1800                           
  1801  0070                     ?_IOCAF5_ISR:	
  1802                           ; 1 bytes @ 0x0
  1803                           
  1804  0070                     ??_IOCAF5_ISR:	
  1805                           ; 1 bytes @ 0x0
  1806                           
  1807  0070                     ?_SPI1_Initialize:	
  1808                           ; 1 bytes @ 0x0
  1809                           
  1810  0070                     ?_SPI1_ExchangeByte:	
  1811                           ; 1 bytes @ 0x0
  1812                           
  1813  0070                     ??_SPI1_ExchangeByte:	
  1814                           ; 1 bytes @ 0x0
  1815                           
  1816  0070                     ?_SYSTEM_Initialize:	
  1817                           ; 1 bytes @ 0x0
  1818                           
  1819  0070                     ?_INTERRUPT_InterruptManager:	
  1820                           ; 1 bytes @ 0x0
  1821                           
  1822  0070                     ??_INTERRUPT_InterruptManager:	
  1823                           ; 1 bytes @ 0x0
  1824                           
  1825  0070                     ?_NRF_SPI:	
  1826                           ; 1 bytes @ 0x0
  1827                           
  1828  0070                     ?_NRF_FlushTX:	
  1829                           ; 1 bytes @ 0x0
  1830                           
  1831  0070                     ?_NRF_TX_Init:	
  1832                           ; 1 bytes @ 0x0
  1833                           
  1834  0070                     ?_NRF_RX_Init:	
  1835                           ; 1 bytes @ 0x0
  1836                           
  1837  0070                     ?_main:	
  1838                           ; 1 bytes @ 0x0
  1839                           
  1840  0070                     SPI1_ExchangeByte@data:	
  1841                           ; 1 bytes @ 0x0
  1842                           
  1843  0070                     SPI1_SetInterruptHandler@handler:	
  1844                           ; 1 bytes @ 0x0
  1845                           
  1846  0070                     IOCAF5_SetInterruptHandler@InterruptHandler:	
  1847                           ; 2 bytes @ 0x0
  1848                           
  1849                           
  1850                           ; 2 bytes @ 0x0
  1851  0070                     	ds	1
  1852  0071                     ??_NRF_SPI:
  1853  0071                     NRF_SPI@data:	
  1854                           ; 1 bytes @ 0x1
  1855                           
  1856                           
  1857                           ; 1 bytes @ 0x1
  1858  0071                     	ds	1
  1859  0072                     ??_SPI1_SetInterruptHandler:
  1860  0072                     ??_PIN_MANAGER_Initialize:	
  1861                           ; 1 bytes @ 0x2
  1862                           
  1863  0072                     ??_IOCAF5_SetInterruptHandler:	
  1864                           ; 1 bytes @ 0x2
  1865                           
  1866  0072                     ??_SPI1_Initialize:	
  1867                           ; 1 bytes @ 0x2
  1868                           
  1869  0072                     ??_SYSTEM_Initialize:	
  1870                           ; 1 bytes @ 0x2
  1871                           
  1872  0072                     ?_NRF_WriteRegister:	
  1873                           ; 1 bytes @ 0x2
  1874                           
  1875  0072                     ?_NRF_WriteRegisterMulti:	
  1876                           ; 1 bytes @ 0x2
  1877                           
  1878  0072                     ?_NRF_SendPayload:	
  1879                           ; 1 bytes @ 0x2
  1880                           
  1881  0072                     ??_NRF_FlushTX:	
  1882                           ; 1 bytes @ 0x2
  1883                           
  1884  0072                     NRF_WriteRegister@value:	
  1885                           ; 1 bytes @ 0x2
  1886                           
  1887  0072                     NRF_WriteRegisterMulti@data:	
  1888                           ; 1 bytes @ 0x2
  1889                           
  1890  0072                     NRF_SendPayload@len:	
  1891                           ; 1 bytes @ 0x2
  1892                           
  1893                           
  1894                           ; 1 bytes @ 0x2
  1895  0072                     	ds	1
  1896  0073                     ??_NRF_WriteRegister:
  1897  0073                     ??_NRF_SendPayload:	
  1898                           ; 1 bytes @ 0x3
  1899                           
  1900  0073                     NRF_WriteRegister@reg:	
  1901                           ; 1 bytes @ 0x3
  1902                           
  1903  0073                     NRF_WriteRegisterMulti@len:	
  1904                           ; 1 bytes @ 0x3
  1905                           
  1906                           
  1907                           ; 1 bytes @ 0x3
  1908  0073                     	ds	1
  1909  0074                     ??_NRF_WriteRegisterMulti:
  1910  0074                     NRF_SendPayload@data:	
  1911                           ; 1 bytes @ 0x4
  1912                           
  1913                           
  1914                           ; 1 bytes @ 0x4
  1915  0074                     	ds	1
  1916  0075                     NRF_WriteRegisterMulti@reg:
  1917  0075                     NRF_SendPayload@i:	
  1918                           ; 1 bytes @ 0x5
  1919                           
  1920                           
  1921                           ; 1 bytes @ 0x5
  1922  0075                     	ds	1
  1923  0076                     NRF_WriteRegisterMulti@i:
  1924                           
  1925                           ; 1 bytes @ 0x6
  1926  0076                     	ds	1
  1927  0077                     ??_NRF_TX_Init:
  1928  0077                     ??_NRF_RX_Init:	
  1929                           ; 1 bytes @ 0x7
  1930                           
  1931                           
  1932                           ; 1 bytes @ 0x7
  1933  0077                     	ds	2
  1934  0079                     NRF_TX_Init@tx_address:
  1935  0079                     NRF_RX_Init@rx_address:	
  1936                           ; 5 bytes @ 0x9
  1937                           
  1938                           
  1939                           ; 5 bytes @ 0x9
  1940  0079                     	ds	5
  1941                           
  1942                           	psect	cstackBANK0
  1943  002F                     __pcstackBANK0:
  1944  002F                     ??_main:
  1945                           
  1946                           ; 1 bytes @ 0x0
  1947  002F                     	ds	1
  1948  0030                     main@data:
  1949                           
  1950                           ; 1 bytes @ 0x1
  1951  0030                     	ds	1
  1952                           
  1953                           	psect	maintext
  1954  0025                     __pmaintext:	
  1955 ;;
  1956 ;;Main: autosize = 0, tempsize = 1, incstack = 0, save=0
  1957 ;;
  1958 ;; *************** function _main *****************
  1959 ;; Defined at:
  1960 ;;		line 234 in file "main.c"
  1961 ;; Parameters:    Size  Location     Type
  1962 ;;		None
  1963 ;; Auto vars:     Size  Location     Type
  1964 ;;  data            1    1[BANK0 ] unsigned char [1]
  1965 ;; Return value:  Size  Location     Type
  1966 ;;                  1    wreg      void 
  1967 ;; Registers used:
  1968 ;;		wreg, fsr0l, fsr0h, fsr1l, fsr1h, status,2, status,0, pclath, cstack
  1969 ;; Tracked objects:
  1970 ;;		On entry : B1F/0
  1971 ;;		On exit  : 0/0
  1972 ;;		Unchanged: 0/0
  1973 ;; Data sizes:     COMMON   BANK0   BANK1   BANK2
  1974 ;;      Params:         0       0       0       0
  1975 ;;      Locals:         0       1       0       0
  1976 ;;      Temps:          0       1       0       0
  1977 ;;      Totals:         0       2       0       0
  1978 ;;Total ram usage:        2 bytes
  1979 ;; Hardware stack levels required when called: 8
  1980 ;; This function calls:
  1981 ;;		_NRF_FlushTX
  1982 ;;		_NRF_RX_Init
  1983 ;;		_NRF_SendPayload
  1984 ;;		_NRF_TX_Init
  1985 ;;		_NRF_WriteRegister
  1986 ;;		_SYSTEM_Initialize
  1987 ;; This function is called by:
  1988 ;;		Startup code after reset
  1989 ;; This function uses a non-reentrant model
  1990 ;;
  1991                           
  1992  0025                     _main:	
  1993                           ;psect for function _main
  1994                           
  1995  0025                     l1510:	
  1996                           ;incstack = 0
  1997                           ; Regs used in _main: [wreg-fsr1h+status,2+status,0+pclath+cstack]
  1998                           
  1999                           
  2000                           ;main.c: 236:     SYSTEM_Initialize();
  2001  0025  3181  21DF  3180   	fcall	_SYSTEM_Initialize
  2002  0028                     l1512:
  2003                           
  2004                           ;main.c: 237:     TRISAbits.TRISA2 = 0;
  2005  0028  0021               	movlb	1	; select bank1
  2006  0029  110C               	bcf	12,2	;volatile
  2007  002A                     l1514:
  2008                           
  2009                           ;main.c: 238:     TRISCbits.TRISC3=1;
  2010  002A  158E               	bsf	14,3	;volatile
  2011  002B                     l1516:
  2012                           
  2013                           ;main.c: 251:     NRF_TX_Init();
  2014  002B  3180  208B  3180   	fcall	_NRF_TX_Init
  2015  002E                     l1518:
  2016                           
  2017                           ;main.c: 252:     _delay((unsigned long)((100)*(1000000/4000.0)));
  2018  002E  3021               	movlw	33
  2019  002F  0020               	movlb	0	; select bank0
  2020  0030  00AF               	movwf	??_main
  2021  0031  3076               	movlw	118
  2022  0032                     u427:
  2023  0032  0B89               	decfsz	9,f
  2024  0033  2832               	goto	u427
  2025  0034  0BAF               	decfsz	??_main,f
  2026  0035  2832               	goto	u427
  2027  0036  0000               	nop
  2028  0037                     l1520:
  2029                           
  2030                           ;main.c: 254: {;main.c: 256:     if (PORTCbits.RC3 == 1)
  2031  0037  0020               	movlb	0	; select bank0
  2032  0038  1D8E               	btfss	14,3	;volatile
  2033  0039  283B               	goto	u391
  2034  003A  283C               	goto	u390
  2035  003B                     u391:
  2036  003B  2837               	goto	l1520
  2037  003C                     u390:
  2038  003C                     l1522:
  2039                           
  2040                           ;main.c: 257:     {;main.c: 258:         _delay((unsigned long)((50)*(1000000/4000.0)));
  2041  003C  3011               	movlw	17
  2042  003D  0020               	movlb	0	; select bank0
  2043  003E  00AF               	movwf	??_main
  2044  003F  303A               	movlw	58
  2045  0040                     u437:
  2046  0040  0B89               	decfsz	9,f
  2047  0041  2840               	goto	u437
  2048  0042  0BAF               	decfsz	??_main,f
  2049  0043  2840               	goto	u437
  2050  0044  0000               	nop
  2051  0045                     l1524:
  2052                           
  2053                           ;main.c: 259:         if (PORTCbits.RC3 == 1)
  2054  0045  0020               	movlb	0	; select bank0
  2055  0046  1D8E               	btfss	14,3	;volatile
  2056  0047  2849               	goto	u401
  2057  0048  284A               	goto	u400
  2058  0049                     u401:
  2059  0049  2837               	goto	l1520
  2060  004A                     u400:
  2061  004A                     l1526:
  2062                           
  2063                           ;main.c: 260:         {;main.c: 261:             uint8_t data[] = {0x55};
  2064  004A  082A               	movf	main@F5229,w
  2065  004B  00AF               	movwf	??_main
  2066  004C  082F               	movf	??_main,w
  2067  004D  00B0               	movwf	main@data
  2068  004E                     l1528:
  2069                           
  2070                           ;main.c: 263:             LATCbits.LATC5 = 0;
  2071  004E  0022               	movlb	2	; select bank2
  2072  004F  128E               	bcf	14,5	;volatile
  2073  0050                     l1530:
  2074                           
  2075                           ;main.c: 264:             NRF_FlushTX();
  2076  0050  3182  222F  3180   	fcall	_NRF_FlushTX
  2077  0053                     l1532:
  2078                           
  2079                           ;main.c: 265:             NRF_SendPayload(data, 1);
  2080  0053  01F2               	clrf	NRF_SendPayload@len
  2081  0054  0AF2               	incf	NRF_SendPayload@len,f
  2082  0055  3030               	movlw	(low (main@data| 0))& (0+255)
  2083  0056  3181  21A1  3180   	fcall	_NRF_SendPayload
  2084  0059                     l1534:
  2085                           
  2086                           ;main.c: 266:             NRF_WriteRegister(0x07, 0x70);
  2087  0059  3070               	movlw	112
  2088  005A  0020               	movlb	0	; select bank0
  2089  005B  00AF               	movwf	??_main
  2090  005C  082F               	movf	??_main,w
  2091  005D  00F2               	movwf	NRF_WriteRegister@value
  2092  005E  3007               	movlw	7
  2093  005F  3181  21EF  3180   	fcall	_NRF_WriteRegister
  2094  0062                     l1536:
  2095                           
  2096                           ;main.c: 267:             LATCbits.LATC5 = 1;
  2097  0062  0022               	movlb	2	; select bank2
  2098  0063  168E               	bsf	14,5	;volatile
  2099  0064                     l1538:
  2100                           
  2101                           ;main.c: 268:             _delay((unsigned long)((15)*(1000000/4000.0)));
  2102  0064  3005               	movlw	5
  2103  0065  0020               	movlb	0	; select bank0
  2104  0066  00AF               	movwf	??_main
  2105  0067  30DD               	movlw	221
  2106  0068                     u447:
  2107  0068  0B89               	decfsz	9,f
  2108  0069  2868               	goto	u447
  2109  006A  0BAF               	decfsz	??_main,f
  2110  006B  2868               	goto	u447
  2111  006C  3200               	nop2
  2112  006D                     l1540:
  2113                           
  2114                           ;main.c: 269:             LATCbits.LATC5 = 0;
  2115  006D  0022               	movlb	2	; select bank2
  2116  006E  128E               	bcf	14,5	;volatile
  2117  006F                     l293:	
  2118                           ;main.c: 272:             while (PORTCbits.RC3 == 1);
  2119                           
  2120  006F  0020               	movlb	0	; select bank0
  2121  0070  198E               	btfsc	14,3	;volatile
  2122  0071  2873               	goto	u411
  2123  0072  2874               	goto	u410
  2124  0073                     u411:
  2125  0073  286F               	goto	l293
  2126  0074                     u410:
  2127  0074                     l1542:
  2128                           
  2129                           ;main.c: 273:             _delay((unsigned long)((10)*(1000000/4000.0)));
  2130  0074  3004               	movlw	4
  2131  0075  0020               	movlb	0	; select bank0
  2132  0076  00AF               	movwf	??_main
  2133  0077  303D               	movlw	61
  2134  0078                     u457:
  2135  0078  0B89               	decfsz	9,f
  2136  0079  2878               	goto	u457
  2137  007A  0BAF               	decfsz	??_main,f
  2138  007B  2878               	goto	u457
  2139  007C  3200               	nop2
  2140  007D                     l1544:
  2141                           
  2142                           ;main.c: 274:                 NRF_RX_Init();
  2143  007D  3180  20F0  3180   	fcall	_NRF_RX_Init
  2144  0080                     l1546:
  2145                           
  2146                           ;main.c: 275:                 _delay((unsigned long)((30)*(1000000/4000.0)));
  2147  0080  300A               	movlw	10
  2148  0081  0020               	movlb	0	; select bank0
  2149  0082  00AF               	movwf	??_main
  2150  0083  30BC               	movlw	188
  2151  0084                     u467:
  2152  0084  0B89               	decfsz	9,f
  2153  0085  2884               	goto	u467
  2154  0086  0BAF               	decfsz	??_main,f
  2155  0087  2884               	goto	u467
  2156  0088  0000               	nop
  2157  0089  2837               	goto	l1520
  2158  008A  2815               	ljmp	start
  2159  008B                     __end_of_main:
  2160                           
  2161                           	psect	text1
  2162  01DF                     __ptext1:	
  2163 ;; *************** function _SYSTEM_Initialize *****************
  2164 ;; Defined at:
  2165 ;;		line 50 in file "mcc_generated_files/mcc.c"
  2166 ;; Parameters:    Size  Location     Type
  2167 ;;		None
  2168 ;; Auto vars:     Size  Location     Type
  2169 ;;		None
  2170 ;; Return value:  Size  Location     Type
  2171 ;;                  1    wreg      void 
  2172 ;; Registers used:
  2173 ;;		wreg, status,2, status,0, pclath, cstack
  2174 ;; Tracked objects:
  2175 ;;		On entry : 0/0
  2176 ;;		On exit  : 0/0
  2177 ;;		Unchanged: 0/0
  2178 ;; Data sizes:     COMMON   BANK0   BANK1   BANK2
  2179 ;;      Params:         0       0       0       0
  2180 ;;      Locals:         0       0       0       0
  2181 ;;      Temps:          0       0       0       0
  2182 ;;      Totals:         0       0       0       0
  2183 ;;Total ram usage:        0 bytes
  2184 ;; Hardware stack levels used: 1
  2185 ;; Hardware stack levels required when called: 6
  2186 ;; This function calls:
  2187 ;;		_OSCILLATOR_Initialize
  2188 ;;		_PIN_MANAGER_Initialize
  2189 ;;		_PMD_Initialize
  2190 ;;		_SPI1_Initialize
  2191 ;;		_WDT_Initialize
  2192 ;; This function is called by:
  2193 ;;		_main
  2194 ;; This function uses a non-reentrant model
  2195 ;;
  2196                           
  2197  01DF                     _SYSTEM_Initialize:	
  2198                           ;psect for function _SYSTEM_Initialize
  2199                           
  2200  01DF                     l1348:	
  2201                           ;incstack = 0
  2202                           ; Regs used in _SYSTEM_Initialize: [wreg+status,2+status,0+pclath+cstack]
  2203                           
  2204                           
  2205                           ;mcc_generated_files/mcc.c: 53:     PMD_Initialize();
  2206  01DF  3182  2241  3181   	fcall	_PMD_Initialize
  2207  01E2                     l1350:
  2208                           
  2209                           ;mcc_generated_files/mcc.c: 54:     SPI1_Initialize();
  2210  01E2  3181  21C1  3181   	fcall	_SPI1_Initialize
  2211  01E5                     l1352:
  2212                           
  2213                           ;mcc_generated_files/mcc.c: 55:     PIN_MANAGER_Initialize();
  2214  01E5  3181  214B  3181   	fcall	_PIN_MANAGER_Initialize
  2215  01E8                     l1354:
  2216                           
  2217                           ;mcc_generated_files/mcc.c: 56:     OSCILLATOR_Initialize();
  2218  01E8  3182  2226  3181   	fcall	_OSCILLATOR_Initialize
  2219  01EB                     l1356:
  2220                           
  2221                           ;mcc_generated_files/mcc.c: 57:     WDT_Initialize();
  2222  01EB  3182  2265  3181   	fcall	_WDT_Initialize
  2223  01EE                     l124:
  2224  01EE  0008               	return
  2225  01EF                     __end_of_SYSTEM_Initialize:
  2226                           
  2227                           	psect	text2
  2228  0265                     __ptext2:	
  2229 ;; *************** function _WDT_Initialize *****************
  2230 ;; Defined at:
  2231 ;;		line 74 in file "mcc_generated_files/mcc.c"
  2232 ;; Parameters:    Size  Location     Type
  2233 ;;		None
  2234 ;; Auto vars:     Size  Location     Type
  2235 ;;		None
  2236 ;; Return value:  Size  Location     Type
  2237 ;;                  1    wreg      void 
  2238 ;; Registers used:
  2239 ;;		wreg
  2240 ;; Tracked objects:
  2241 ;;		On entry : 0/0
  2242 ;;		On exit  : 0/0
  2243 ;;		Unchanged: 0/0
  2244 ;; Data sizes:     COMMON   BANK0   BANK1   BANK2
  2245 ;;      Params:         0       0       0       0
  2246 ;;      Locals:         0       0       0       0
  2247 ;;      Temps:          0       0       0       0
  2248 ;;      Totals:         0       0       0       0
  2249 ;;Total ram usage:        0 bytes
  2250 ;; Hardware stack levels used: 1
  2251 ;; Hardware stack levels required when called: 4
  2252 ;; This function calls:
  2253 ;;		Nothing
  2254 ;; This function is called by:
  2255 ;;		_SYSTEM_Initialize
  2256 ;; This function uses a non-reentrant model
  2257 ;;
  2258                           
  2259  0265                     _WDT_Initialize:	
  2260                           ;psect for function _WDT_Initialize
  2261                           
  2262  0265                     l1314:	
  2263                           ;incstack = 0
  2264                           ; Regs used in _WDT_Initialize: [wreg]
  2265                           
  2266                           
  2267                           ;mcc_generated_files/mcc.c: 77:     WDTCON = 0x16;
  2268  0265  3016               	movlw	22
  2269  0266  0021               	movlb	1	; select bank1
  2270  0267  0097               	movwf	23	;volatile
  2271  0268                     l130:
  2272  0268  0008               	return
  2273  0269                     __end_of_WDT_Initialize:
  2274                           
  2275                           	psect	text3
  2276  01C1                     __ptext3:	
  2277 ;; *************** function _SPI1_Initialize *****************
  2278 ;; Defined at:
  2279 ;;		line 62 in file "mcc_generated_files/spi1.c"
  2280 ;; Parameters:    Size  Location     Type
  2281 ;;		None
  2282 ;; Auto vars:     Size  Location     Type
  2283 ;;		None
  2284 ;; Return value:  Size  Location     Type
  2285 ;;                  1    wreg      void 
  2286 ;; Registers used:
  2287 ;;		wreg, status,2, status,0, pclath, cstack
  2288 ;; Tracked objects:
  2289 ;;		On entry : 0/0
  2290 ;;		On exit  : 0/0
  2291 ;;		Unchanged: 0/0
  2292 ;; Data sizes:     COMMON   BANK0   BANK1   BANK2
  2293 ;;      Params:         0       0       0       0
  2294 ;;      Locals:         0       0       0       0
  2295 ;;      Temps:          0       0       0       0
  2296 ;;      Totals:         0       0       0       0
  2297 ;;Total ram usage:        0 bytes
  2298 ;; Hardware stack levels used: 1
  2299 ;; Hardware stack levels required when called: 5
  2300 ;; This function calls:
  2301 ;;		_SPI1_SetInterruptHandler
  2302 ;; This function is called by:
  2303 ;;		_SYSTEM_Initialize
  2304 ;; This function uses a non-reentrant model
  2305 ;;
  2306                           
  2307  01C1                     _SPI1_Initialize:	
  2308                           ;psect for function _SPI1_Initialize
  2309                           
  2310  01C1                     l1258:	
  2311                           ;incstack = 0
  2312                           ; Regs used in _SPI1_Initialize: [wreg+status,2+status,0+pclath+cstack]
  2313                           
  2314                           
  2315                           ;mcc_generated_files/spi1.c: 65:     SSP1CLKPPS = 16;
  2316  01C1  3010               	movlw	16
  2317  01C2  003C               	movlb	28	; select bank28
  2318  01C3  00A0               	movwf	32	;volatile
  2319                           
  2320                           ;mcc_generated_files/spi1.c: 66:     SSP1DATPPS = 17;
  2321  01C4  3011               	movlw	17
  2322  01C5  00A1               	movwf	33	;volatile
  2323                           
  2324                           ;mcc_generated_files/spi1.c: 67:     RC0PPS = 24;
  2325  01C6  3018               	movlw	24
  2326  01C7  003D               	movlb	29	; select bank29
  2327  01C8  00A0               	movwf	32	;volatile
  2328                           
  2329                           ;mcc_generated_files/spi1.c: 68:     RC2PPS = 25;
  2330  01C9  3019               	movlw	25
  2331  01CA  00A2               	movwf	34	;volatile
  2332                           
  2333                           ;mcc_generated_files/spi1.c: 70:     SSP1STAT = 0xC0;
  2334  01CB  30C0               	movlw	192
  2335  01CC  0024               	movlb	4	; select bank4
  2336  01CD  0094               	movwf	20	;volatile
  2337  01CE                     l1260:
  2338                           
  2339                           ;mcc_generated_files/spi1.c: 71:     SSP1CON1 = 0x00;
  2340  01CE  0195               	clrf	21	;volatile
  2341  01CF                     l1262:
  2342                           
  2343                           ;mcc_generated_files/spi1.c: 72:     SSP1ADD = 0x01;
  2344  01CF  3001               	movlw	1
  2345  01D0  0092               	movwf	18	;volatile
  2346  01D1                     l1264:
  2347                           
  2348                           ;mcc_generated_files/spi1.c: 73:     PIE1bits.SSP1IE = 1;
  2349  01D1  0021               	movlb	1	; select bank1
  2350  01D2  1591               	bsf	17,3	;volatile
  2351  01D3                     l1266:
  2352                           
  2353                           ;mcc_generated_files/spi1.c: 74:     SPI1_SetInterruptHandler(SPI1_Isr);
  2354  01D3  3000               	movlw	0
  2355  01D4  00F0               	movwf	SPI1_SetInterruptHandler@handler
  2356  01D5  3000               	movlw	0
  2357  01D6  00F1               	movwf	SPI1_SetInterruptHandler@handler+1
  2358  01D7  3182  224F  3181   	fcall	_SPI1_SetInterruptHandler
  2359  01DA                     l1268:
  2360                           
  2361                           ;mcc_generated_files/spi1.c: 75:     TRISCbits.TRISC0 = 1;
  2362  01DA  0021               	movlb	1	; select bank1
  2363  01DB  140E               	bsf	14,0	;volatile
  2364  01DC                     l1270:
  2365                           
  2366                           ;mcc_generated_files/spi1.c: 76:     SSP1CON1bits.SSPEN = 1;
  2367  01DC  0024               	movlb	4	; select bank4
  2368  01DD  1695               	bsf	21,5	;volatile
  2369  01DE                     l37:
  2370  01DE  0008               	return
  2371  01DF                     __end_of_SPI1_Initialize:
  2372                           
  2373                           	psect	text4
  2374  024F                     __ptext4:	
  2375 ;; *************** function _SPI1_SetInterruptHandler *****************
  2376 ;; Defined at:
  2377 ;;		line 158 in file "mcc_generated_files/spi1.c"
  2378 ;; Parameters:    Size  Location     Type
  2379 ;;  handler         2    0[COMMON] PTR FTN()void 
  2380 ;;		 -> SPI1_Isr(1), 
  2381 ;; Auto vars:     Size  Location     Type
  2382 ;;		None
  2383 ;; Return value:  Size  Location     Type
  2384 ;;                  1    wreg      void 
  2385 ;; Registers used:
  2386 ;;		wreg
  2387 ;; Tracked objects:
  2388 ;;		On entry : 0/0
  2389 ;;		On exit  : 0/0
  2390 ;;		Unchanged: 0/0
  2391 ;; Data sizes:     COMMON   BANK0   BANK1   BANK2
  2392 ;;      Params:         2       0       0       0
  2393 ;;      Locals:         0       0       0       0
  2394 ;;      Temps:          0       0       0       0
  2395 ;;      Totals:         2       0       0       0
  2396 ;;Total ram usage:        2 bytes
  2397 ;; Hardware stack levels used: 1
  2398 ;; Hardware stack levels required when called: 4
  2399 ;; This function calls:
  2400 ;;		Nothing
  2401 ;; This function is called by:
  2402 ;;		_SPI1_Initialize
  2403 ;; This function uses a non-reentrant model
  2404 ;;
  2405                           
  2406  024F                     _SPI1_SetInterruptHandler:	
  2407                           ;psect for function _SPI1_SetInterruptHandler
  2408                           
  2409  024F                     l1250:	
  2410                           ;incstack = 0
  2411                           ; Regs used in _SPI1_SetInterruptHandler: [wreg]
  2412                           
  2413                           
  2414                           ;mcc_generated_files/spi1.c: 158: void SPI1_SetInterruptHandler(spi1InterruptHandler_t h
      +                          andler);mcc_generated_files/spi1.c: 159: {;mcc_generated_files/spi1.c: 160:     MSSP1_In
      +                          terruptHandler = handler;
  2415  024F  0871               	movf	SPI1_SetInterruptHandler@handler+1,w
  2416  0250  0020               	movlb	0	; select bank0
  2417  0251  00AE               	movwf	_MSSP1_InterruptHandler+1
  2418  0252  0870               	movf	SPI1_SetInterruptHandler@handler,w
  2419  0253  00AD               	movwf	_MSSP1_InterruptHandler
  2420  0254                     l85:
  2421  0254  0008               	return
  2422  0255                     __end_of_SPI1_SetInterruptHandler:
  2423                           
  2424                           	psect	text5
  2425  0241                     __ptext5:	
  2426 ;; *************** function _PMD_Initialize *****************
  2427 ;; Defined at:
  2428 ;;		line 80 in file "mcc_generated_files/mcc.c"
  2429 ;; Parameters:    Size  Location     Type
  2430 ;;		None
  2431 ;; Auto vars:     Size  Location     Type
  2432 ;;		None
  2433 ;; Return value:  Size  Location     Type
  2434 ;;                  1    wreg      void 
  2435 ;; Registers used:
  2436 ;;		status,2
  2437 ;; Tracked objects:
  2438 ;;		On entry : 0/0
  2439 ;;		On exit  : 0/0
  2440 ;;		Unchanged: 0/0
  2441 ;; Data sizes:     COMMON   BANK0   BANK1   BANK2
  2442 ;;      Params:         0       0       0       0
  2443 ;;      Locals:         0       0       0       0
  2444 ;;      Temps:          0       0       0       0
  2445 ;;      Totals:         0       0       0       0
  2446 ;;Total ram usage:        0 bytes
  2447 ;; Hardware stack levels used: 1
  2448 ;; Hardware stack levels required when called: 4
  2449 ;; This function calls:
  2450 ;;		Nothing
  2451 ;; This function is called by:
  2452 ;;		_SYSTEM_Initialize
  2453 ;; This function uses a non-reentrant model
  2454 ;;
  2455                           
  2456  0241                     _PMD_Initialize:	
  2457                           ;psect for function _PMD_Initialize
  2458                           
  2459  0241                     l1272:	
  2460                           ;incstack = 0
  2461                           ; Regs used in _PMD_Initialize: [status,2]
  2462                           
  2463                           
  2464                           ;mcc_generated_files/mcc.c: 83:     PMD0 = 0x00;
  2465  0241  0032               	movlb	18	; select bank18
  2466  0242  0191               	clrf	17	;volatile
  2467                           
  2468                           ;mcc_generated_files/mcc.c: 85:     PMD1 = 0x00;
  2469  0243  0192               	clrf	18	;volatile
  2470                           
  2471                           ;mcc_generated_files/mcc.c: 87:     PMD2 = 0x00;
  2472  0244  0193               	clrf	19	;volatile
  2473                           
  2474                           ;mcc_generated_files/mcc.c: 89:     PMD3 = 0x00;
  2475  0245  0194               	clrf	20	;volatile
  2476                           
  2477                           ;mcc_generated_files/mcc.c: 91:     PMD4 = 0x00;
  2478  0246  0195               	clrf	21	;volatile
  2479                           
  2480                           ;mcc_generated_files/mcc.c: 93:     PMD5 = 0x00;
  2481  0247  0196               	clrf	22	;volatile
  2482  0248                     l133:
  2483  0248  0008               	return
  2484  0249                     __end_of_PMD_Initialize:
  2485                           
  2486                           	psect	text6
  2487  014B                     __ptext6:	
  2488 ;; *************** function _PIN_MANAGER_Initialize *****************
  2489 ;; Defined at:
  2490 ;;		line 57 in file "mcc_generated_files/pin_manager.c"
  2491 ;; Parameters:    Size  Location     Type
  2492 ;;		None
  2493 ;; Auto vars:     Size  Location     Type
  2494 ;;		None
  2495 ;; Return value:  Size  Location     Type
  2496 ;;                  1    wreg      void 
  2497 ;; Registers used:
  2498 ;;		wreg, status,2, status,0, pclath, cstack
  2499 ;; Tracked objects:
  2500 ;;		On entry : 0/0
  2501 ;;		On exit  : 0/0
  2502 ;;		Unchanged: 0/0
  2503 ;; Data sizes:     COMMON   BANK0   BANK1   BANK2
  2504 ;;      Params:         0       0       0       0
  2505 ;;      Locals:         0       0       0       0
  2506 ;;      Temps:          0       0       0       0
  2507 ;;      Totals:         0       0       0       0
  2508 ;;Total ram usage:        0 bytes
  2509 ;; Hardware stack levels used: 1
  2510 ;; Hardware stack levels required when called: 5
  2511 ;; This function calls:
  2512 ;;		_IOCAF5_SetInterruptHandler
  2513 ;; This function is called by:
  2514 ;;		_SYSTEM_Initialize
  2515 ;; This function uses a non-reentrant model
  2516 ;;
  2517                           
  2518  014B                     _PIN_MANAGER_Initialize:	
  2519                           ;psect for function _PIN_MANAGER_Initialize
  2520                           
  2521  014B                     l1274:	
  2522                           ;incstack = 0
  2523                           ; Regs used in _PIN_MANAGER_Initialize: [wreg+status,2+status,0+pclath+cstack]
  2524                           
  2525                           
  2526                           ;mcc_generated_files/pin_manager.c: 62:     LATA = 0x00;
  2527  014B  0022               	movlb	2	; select bank2
  2528  014C  018C               	clrf	12	;volatile
  2529                           
  2530                           ;mcc_generated_files/pin_manager.c: 63:     LATC = 0x00;
  2531  014D  018E               	clrf	14	;volatile
  2532  014E                     l1276:
  2533                           
  2534                           ;mcc_generated_files/pin_manager.c: 68:     TRISA = 0x23;
  2535  014E  3023               	movlw	35
  2536  014F  0021               	movlb	1	; select bank1
  2537  0150  008C               	movwf	12	;volatile
  2538  0151                     l1278:
  2539                           
  2540                           ;mcc_generated_files/pin_manager.c: 69:     TRISC = 0x2A;
  2541  0151  302A               	movlw	42
  2542  0152  008E               	movwf	14	;volatile
  2543                           
  2544                           ;mcc_generated_files/pin_manager.c: 74:     ANSELC = 0x00;
  2545  0153  0023               	movlb	3	; select bank3
  2546  0154  018E               	clrf	14	;volatile
  2547                           
  2548                           ;mcc_generated_files/pin_manager.c: 75:     ANSELA = 0x00;
  2549  0155  018C               	clrf	12	;volatile
  2550                           
  2551                           ;mcc_generated_files/pin_manager.c: 80:     WPUA = 0x00;
  2552  0156  0024               	movlb	4	; select bank4
  2553  0157  018C               	clrf	12	;volatile
  2554                           
  2555                           ;mcc_generated_files/pin_manager.c: 81:     WPUC = 0x00;
  2556  0158  018E               	clrf	14	;volatile
  2557                           
  2558                           ;mcc_generated_files/pin_manager.c: 86:     ODCONA = 0x00;
  2559  0159  0025               	movlb	5	; select bank5
  2560  015A  018C               	clrf	12	;volatile
  2561                           
  2562                           ;mcc_generated_files/pin_manager.c: 87:     ODCONC = 0x00;
  2563  015B  018E               	clrf	14	;volatile
  2564  015C                     l1280:
  2565                           
  2566                           ;mcc_generated_files/pin_manager.c: 92:     SLRCONA = 0x37;
  2567  015C  3037               	movlw	55
  2568  015D  0026               	movlb	6	; select bank6
  2569  015E  008C               	movwf	12	;volatile
  2570  015F                     l1282:
  2571                           
  2572                           ;mcc_generated_files/pin_manager.c: 93:     SLRCONC = 0x3F;
  2573  015F  303F               	movlw	63
  2574  0160  008E               	movwf	14	;volatile
  2575  0161                     l1284:
  2576                           
  2577                           ;mcc_generated_files/pin_manager.c: 98:     INLVLA = 0x3F;
  2578  0161  303F               	movlw	63
  2579  0162  0027               	movlb	7	; select bank7
  2580  0163  008C               	movwf	12	;volatile
  2581  0164                     l1286:
  2582                           
  2583                           ;mcc_generated_files/pin_manager.c: 99:     INLVLC = 0x3F;
  2584  0164  303F               	movlw	63
  2585  0165  008E               	movwf	14	;volatile
  2586  0166                     l1288:
  2587                           
  2588                           ;mcc_generated_files/pin_manager.c: 106:     IOCAFbits.IOCAF5 = 0;
  2589  0166  1293               	bcf	19,5	;volatile
  2590  0167                     l1290:
  2591                           
  2592                           ;mcc_generated_files/pin_manager.c: 108:     IOCANbits.IOCAN5 = 1;
  2593  0167  1692               	bsf	18,5	;volatile
  2594  0168                     l1292:
  2595                           
  2596                           ;mcc_generated_files/pin_manager.c: 110:     IOCAPbits.IOCAP5 = 0;
  2597  0168  1291               	bcf	17,5	;volatile
  2598  0169                     l1294:
  2599                           
  2600                           ;mcc_generated_files/pin_manager.c: 115:     IOCAF5_SetInterruptHandler(IOCAF5_DefaultIn
      +                          terruptHandler);
  2601  0169  3069               	movlw	low _IOCAF5_DefaultInterruptHandler
  2602  016A  00F0               	movwf	IOCAF5_SetInterruptHandler@InterruptHandler
  2603  016B  3002               	movlw	high _IOCAF5_DefaultInterruptHandler
  2604  016C  00F1               	movwf	IOCAF5_SetInterruptHandler@InterruptHandler+1
  2605  016D  3182  2255  3181   	fcall	_IOCAF5_SetInterruptHandler
  2606  0170                     l1296:
  2607                           
  2608                           ;mcc_generated_files/pin_manager.c: 118:     PIE0bits.IOCIE = 1;
  2609  0170  0021               	movlb	1	; select bank1
  2610  0171  1610               	bsf	16,4	;volatile
  2611  0172                     l1298:
  2612                           
  2613                           ;mcc_generated_files/pin_manager.c: 121:     RC0PPS = 0x18;
  2614  0172  3018               	movlw	24
  2615  0173  003D               	movlb	29	; select bank29
  2616  0174  00A0               	movwf	32	;volatile
  2617  0175                     l1300:
  2618                           
  2619                           ;mcc_generated_files/pin_manager.c: 122:     SSP1CLKPPS = 0x10;
  2620  0175  3010               	movlw	16
  2621  0176  003C               	movlb	28	; select bank28
  2622  0177  00A0               	movwf	32	;volatile
  2623  0178                     l1302:
  2624                           
  2625                           ;mcc_generated_files/pin_manager.c: 123:     RC2PPS = 0x19;
  2626  0178  3019               	movlw	25
  2627  0179  003D               	movlb	29	; select bank29
  2628  017A  00A2               	movwf	34	;volatile
  2629  017B                     l1304:
  2630                           
  2631                           ;mcc_generated_files/pin_manager.c: 124:     SSP1DATPPS = 0x11;
  2632  017B  3011               	movlw	17
  2633  017C  003C               	movlb	28	; select bank28
  2634  017D  00A1               	movwf	33	;volatile
  2635  017E                     l203:
  2636  017E  0008               	return
  2637  017F                     __end_of_PIN_MANAGER_Initialize:
  2638                           
  2639                           	psect	text7
  2640  0255                     __ptext7:	
  2641 ;; *************** function _IOCAF5_SetInterruptHandler *****************
  2642 ;; Defined at:
  2643 ;;		line 154 in file "mcc_generated_files/pin_manager.c"
  2644 ;; Parameters:    Size  Location     Type
  2645 ;;  InterruptHan    2    0[COMMON] PTR FTN()void 
  2646 ;;		 -> IOCAF5_DefaultInterruptHandler(1), 
  2647 ;; Auto vars:     Size  Location     Type
  2648 ;;		None
  2649 ;; Return value:  Size  Location     Type
  2650 ;;                  1    wreg      void 
  2651 ;; Registers used:
  2652 ;;		wreg
  2653 ;; Tracked objects:
  2654 ;;		On entry : 0/0
  2655 ;;		On exit  : 0/0
  2656 ;;		Unchanged: 0/0
  2657 ;; Data sizes:     COMMON   BANK0   BANK1   BANK2
  2658 ;;      Params:         2       0       0       0
  2659 ;;      Locals:         0       0       0       0
  2660 ;;      Temps:          0       0       0       0
  2661 ;;      Totals:         2       0       0       0
  2662 ;;Total ram usage:        2 bytes
  2663 ;; Hardware stack levels used: 1
  2664 ;; Hardware stack levels required when called: 4
  2665 ;; This function calls:
  2666 ;;		Nothing
  2667 ;; This function is called by:
  2668 ;;		_PIN_MANAGER_Initialize
  2669 ;; This function uses a non-reentrant model
  2670 ;;
  2671                           
  2672  0255                     _IOCAF5_SetInterruptHandler:	
  2673                           ;psect for function _IOCAF5_SetInterruptHandler
  2674                           
  2675  0255                     l1252:	
  2676                           ;incstack = 0
  2677                           ; Regs used in _IOCAF5_SetInterruptHandler: [wreg]
  2678                           
  2679                           
  2680                           ;mcc_generated_files/pin_manager.c: 155:     IOCAF5_InterruptHandler = InterruptHandler;
  2681  0255  0871               	movf	IOCAF5_SetInterruptHandler@InterruptHandler+1,w
  2682  0256  0020               	movlb	0	; select bank0
  2683  0257  00AC               	movwf	_IOCAF5_InterruptHandler+1
  2684  0258  0870               	movf	IOCAF5_SetInterruptHandler@InterruptHandler,w
  2685  0259  00AB               	movwf	_IOCAF5_InterruptHandler
  2686  025A                     l214:
  2687  025A  0008               	return
  2688  025B                     __end_of_IOCAF5_SetInterruptHandler:
  2689                           
  2690                           	psect	text8
  2691  0226                     __ptext8:	
  2692 ;; *************** function _OSCILLATOR_Initialize *****************
  2693 ;; Defined at:
  2694 ;;		line 60 in file "mcc_generated_files/mcc.c"
  2695 ;; Parameters:    Size  Location     Type
  2696 ;;		None
  2697 ;; Auto vars:     Size  Location     Type
  2698 ;;		None
  2699 ;; Return value:  Size  Location     Type
  2700 ;;                  1    wreg      void 
  2701 ;; Registers used:
  2702 ;;		wreg, status,2
  2703 ;; Tracked objects:
  2704 ;;		On entry : 0/0
  2705 ;;		On exit  : 0/0
  2706 ;;		Unchanged: 0/0
  2707 ;; Data sizes:     COMMON   BANK0   BANK1   BANK2
  2708 ;;      Params:         0       0       0       0
  2709 ;;      Locals:         0       0       0       0
  2710 ;;      Temps:          0       0       0       0
  2711 ;;      Totals:         0       0       0       0
  2712 ;;Total ram usage:        0 bytes
  2713 ;; Hardware stack levels used: 1
  2714 ;; Hardware stack levels required when called: 4
  2715 ;; This function calls:
  2716 ;;		Nothing
  2717 ;; This function is called by:
  2718 ;;		_SYSTEM_Initialize
  2719 ;; This function uses a non-reentrant model
  2720 ;;
  2721                           
  2722  0226                     _OSCILLATOR_Initialize:	
  2723                           ;psect for function _OSCILLATOR_Initialize
  2724                           
  2725  0226                     l1306:	
  2726                           ;incstack = 0
  2727                           ; Regs used in _OSCILLATOR_Initialize: [wreg+status,2]
  2728                           
  2729                           
  2730                           ;mcc_generated_files/mcc.c: 63:     OSCCON1 = 0x62;
  2731  0226  3062               	movlw	98
  2732  0227  0032               	movlb	18	; select bank18
  2733  0228  0099               	movwf	25	;volatile
  2734  0229                     l1308:
  2735                           
  2736                           ;mcc_generated_files/mcc.c: 65:     OSCCON3 = 0x00;
  2737  0229  019B               	clrf	27	;volatile
  2738  022A                     l1310:
  2739                           
  2740                           ;mcc_generated_files/mcc.c: 67:     OSCEN = 0x00;
  2741  022A  019D               	clrf	29	;volatile
  2742                           
  2743                           ;mcc_generated_files/mcc.c: 69:     OSCFRQ = 0x03;
  2744  022B  3003               	movlw	3
  2745  022C  009F               	movwf	31	;volatile
  2746  022D                     l1312:
  2747                           
  2748                           ;mcc_generated_files/mcc.c: 71:     OSCTUNE = 0x00;
  2749  022D  019E               	clrf	30	;volatile
  2750  022E                     l127:
  2751  022E  0008               	return
  2752  022F                     __end_of_OSCILLATOR_Initialize:
  2753                           
  2754                           	psect	text9
  2755  008B                     __ptext9:	
  2756 ;; *************** function _NRF_TX_Init *****************
  2757 ;; Defined at:
  2758 ;;		line 125 in file "main.c"
  2759 ;; Parameters:    Size  Location     Type
  2760 ;;		None
  2761 ;; Auto vars:     Size  Location     Type
  2762 ;;  tx_address      5    9[COMMON] unsigned char [5]
  2763 ;; Return value:  Size  Location     Type
  2764 ;;                  1    wreg      void 
  2765 ;; Registers used:
  2766 ;;		wreg, fsr0l, fsr0h, fsr1l, fsr1h, status,2, status,0, pclath, cstack
  2767 ;; Tracked objects:
  2768 ;;		On entry : 0/0
  2769 ;;		On exit  : 0/0
  2770 ;;		Unchanged: 0/0
  2771 ;; Data sizes:     COMMON   BANK0   BANK1   BANK2
  2772 ;;      Params:         0       0       0       0
  2773 ;;      Locals:         5       0       0       0
  2774 ;;      Temps:          2       0       0       0
  2775 ;;      Totals:         7       0       0       0
  2776 ;;Total ram usage:        7 bytes
  2777 ;; Hardware stack levels used: 1
  2778 ;; Hardware stack levels required when called: 7
  2779 ;; This function calls:
  2780 ;;		_NRF_WriteRegister
  2781 ;;		_NRF_WriteRegisterMulti
  2782 ;; This function is called by:
  2783 ;;		_main
  2784 ;; This function uses a non-reentrant model
  2785 ;;
  2786                           
  2787  008B                     _NRF_TX_Init:	
  2788                           ;psect for function _NRF_TX_Init
  2789                           
  2790  008B                     l1380:	
  2791                           ;incstack = 0
  2792                           ; Regs used in _NRF_TX_Init: [wreg-fsr1h+status,2+status,0+pclath+cstack]
  2793                           
  2794                           
  2795                           ;main.c: 126:     _delay((unsigned long)((100)*(1000000/4000.0)));
  2796  008B  3021               	movlw	33
  2797  008C  00F7               	movwf	??_NRF_TX_Init
  2798  008D  3076               	movlw	118
  2799  008E                     u477:
  2800  008E  0B89               	decfsz	9,f
  2801  008F  288E               	goto	u477
  2802  0090  0BF7               	decfsz	??_NRF_TX_Init,f
  2803  0091  288E               	goto	u477
  2804  0092  3200               	nop2
  2805  0093                     l1382:
  2806                           
  2807                           ;main.c: 129:     uint8_t tx_address[5] = {'A', 'A', 'A', 'A', 'A'};
  2808  0093  3025               	movlw	low NRF_TX_Init@F5213
  2809  0094  0086               	movwf	6
  2810  0095  3000               	movlw	high NRF_TX_Init@F5213
  2811  0096  0087               	movwf	7
  2812  0097  3079               	movlw	low NRF_TX_Init@tx_address
  2813  0098  0084               	movwf	4
  2814  0099  3000               	movlw	high NRF_TX_Init@tx_address
  2815  009A  0085               	movwf	5
  2816  009B  3005               	movlw	5
  2817  009C  00F7               	movwf	??_NRF_TX_Init
  2818  009D                     u300:
  2819  009D  0016               	moviw fsr1++
  2820  009E  001A               	movwi fsr0++
  2821  009F  0BF7               	decfsz	??_NRF_TX_Init,f
  2822  00A0  289D               	goto	u300
  2823  00A1                     l1384:
  2824                           
  2825                           ;main.c: 131:     LATCbits.LATC5 = 0;
  2826  00A1  0022               	movlb	2	; select bank2
  2827  00A2  128E               	bcf	14,5	;volatile
  2828  00A3                     l1386:
  2829                           
  2830                           ;main.c: 133:     NRF_WriteRegister(0x00, 0x0A);
  2831  00A3  300A               	movlw	10
  2832  00A4  00F7               	movwf	??_NRF_TX_Init
  2833  00A5  0877               	movf	??_NRF_TX_Init,w
  2834  00A6  00F2               	movwf	NRF_WriteRegister@value
  2835  00A7  3000               	movlw	0
  2836  00A8  3181  21EF  3180   	fcall	_NRF_WriteRegister
  2837  00AB                     l1388:
  2838                           
  2839                           ;main.c: 135:     NRF_WriteRegister((uint8_t)0x04,(uint8_t)0x2A);
  2840  00AB  302A               	movlw	42
  2841  00AC  00F7               	movwf	??_NRF_TX_Init
  2842  00AD  0877               	movf	??_NRF_TX_Init,w
  2843  00AE  00F2               	movwf	NRF_WriteRegister@value
  2844  00AF  3004               	movlw	4
  2845  00B0  3181  21EF  3180   	fcall	_NRF_WriteRegister
  2846  00B3                     l1390:
  2847                           
  2848                           ;main.c: 136:     NRF_WriteRegister(0x01, 0X01);
  2849  00B3  01F2               	clrf	NRF_WriteRegister@value
  2850  00B4  0AF2               	incf	NRF_WriteRegister@value,f
  2851  00B5  3001               	movlw	1
  2852  00B6  3181  21EF  3180   	fcall	_NRF_WriteRegister
  2853  00B9                     l1392:
  2854                           
  2855                           ;main.c: 138:     NRF_WriteRegister(0x05, 0x02);
  2856  00B9  3002               	movlw	2
  2857  00BA  00F7               	movwf	??_NRF_TX_Init
  2858  00BB  0877               	movf	??_NRF_TX_Init,w
  2859  00BC  00F2               	movwf	NRF_WriteRegister@value
  2860  00BD  3005               	movlw	5
  2861  00BE  3181  21EF  3180   	fcall	_NRF_WriteRegister
  2862  00C1                     l1394:
  2863                           
  2864                           ;main.c: 141:     NRF_WriteRegister(0x06 ,(uint8_t)6 );
  2865  00C1  3006               	movlw	6
  2866  00C2  00F7               	movwf	??_NRF_TX_Init
  2867  00C3  0877               	movf	??_NRF_TX_Init,w
  2868  00C4  00F2               	movwf	NRF_WriteRegister@value
  2869  00C5  3006               	movlw	6
  2870  00C6  3181  21EF  3180   	fcall	_NRF_WriteRegister
  2871  00C9                     l1396:
  2872                           
  2873                           ;main.c: 142:     NRF_WriteRegister(0x03, 0x03);
  2874  00C9  3003               	movlw	3
  2875  00CA  00F7               	movwf	??_NRF_TX_Init
  2876  00CB  0877               	movf	??_NRF_TX_Init,w
  2877  00CC  00F2               	movwf	NRF_WriteRegister@value
  2878  00CD  3003               	movlw	3
  2879  00CE  3181  21EF  3180   	fcall	_NRF_WriteRegister
  2880  00D1                     l1398:
  2881                           
  2882                           ;main.c: 144:     NRF_WriteRegisterMulti(0x10, tx_address, 5);
  2883  00D1  3079               	movlw	(low (NRF_TX_Init@tx_address| 0))& (0+255)
  2884  00D2  00F7               	movwf	??_NRF_TX_Init
  2885  00D3  0877               	movf	??_NRF_TX_Init,w
  2886  00D4  00F2               	movwf	NRF_WriteRegisterMulti@data
  2887  00D5  3005               	movlw	5
  2888  00D6  00F8               	movwf	??_NRF_TX_Init+1
  2889  00D7  0878               	movf	??_NRF_TX_Init+1,w
  2890  00D8  00F3               	movwf	NRF_WriteRegisterMulti@len
  2891  00D9  3010               	movlw	16
  2892  00DA  3181  217F  3180   	fcall	_NRF_WriteRegisterMulti
  2893  00DD                     l1400:
  2894                           
  2895                           ;main.c: 145:     NRF_WriteRegisterMulti(0x0A, tx_address, 5);
  2896  00DD  3079               	movlw	(low (NRF_TX_Init@tx_address| 0))& (0+255)
  2897  00DE  00F7               	movwf	??_NRF_TX_Init
  2898  00DF  0877               	movf	??_NRF_TX_Init,w
  2899  00E0  00F2               	movwf	NRF_WriteRegisterMulti@data
  2900  00E1  3005               	movlw	5
  2901  00E2  00F8               	movwf	??_NRF_TX_Init+1
  2902  00E3  0878               	movf	??_NRF_TX_Init+1,w
  2903  00E4  00F3               	movwf	NRF_WriteRegisterMulti@len
  2904  00E5  300A               	movlw	10
  2905  00E6  3181  217F  3180   	fcall	_NRF_WriteRegisterMulti
  2906  00E9                     l1402:
  2907                           
  2908                           ;main.c: 147:     LATCbits.LATC5 = 1;
  2909  00E9  0022               	movlb	2	; select bank2
  2910  00EA  168E               	bsf	14,5	;volatile
  2911  00EB                     l1404:
  2912                           
  2913                           ;main.c: 148:     _delay((unsigned long)((2)*(1000000/4000.0)));
  2914  00EB  30A6               	movlw	166
  2915  00EC                     u487:
  2916  00EC  0B89               	decfsz	9,f
  2917  00ED  28EC               	goto	u487
  2918  00EE  3200               	nop2
  2919  00EF                     l264:
  2920  00EF  0008               	return
  2921  00F0                     __end_of_NRF_TX_Init:
  2922                           
  2923                           	psect	text10
  2924  01A1                     __ptext10:	
  2925 ;; *************** function _NRF_SendPayload *****************
  2926 ;; Defined at:
  2927 ;;		line 97 in file "main.c"
  2928 ;; Parameters:    Size  Location     Type
  2929 ;;  data            1    wreg     PTR unsigned char 
  2930 ;;		 -> main@data(1), 
  2931 ;;  len             1    2[COMMON] unsigned char 
  2932 ;; Auto vars:     Size  Location     Type
  2933 ;;  data            1    4[COMMON] PTR unsigned char 
  2934 ;;		 -> main@data(1), 
  2935 ;;  i               1    5[COMMON] unsigned char 
  2936 ;; Return value:  Size  Location     Type
  2937 ;;                  1    wreg      void 
  2938 ;; Registers used:
  2939 ;;		wreg, fsr1l, fsr1h, status,2, status,0, pclath, cstack
  2940 ;; Tracked objects:
  2941 ;;		On entry : 0/0
  2942 ;;		On exit  : 0/0
  2943 ;;		Unchanged: 0/0
  2944 ;; Data sizes:     COMMON   BANK0   BANK1   BANK2
  2945 ;;      Params:         1       0       0       0
  2946 ;;      Locals:         2       0       0       0
  2947 ;;      Temps:          1       0       0       0
  2948 ;;      Totals:         4       0       0       0
  2949 ;;Total ram usage:        4 bytes
  2950 ;; Hardware stack levels used: 1
  2951 ;; Hardware stack levels required when called: 6
  2952 ;; This function calls:
  2953 ;;		_NRF_SPI
  2954 ;; This function is called by:
  2955 ;;		_main
  2956 ;; This function uses a non-reentrant model
  2957 ;;
  2958                           
  2959  01A1                     _NRF_SendPayload:	
  2960                           ;psect for function _NRF_SendPayload
  2961                           
  2962                           
  2963                           ;incstack = 0
  2964                           ; Regs used in _NRF_SendPayload: [wreg+fsr1l+fsr1h+status,2+status,0+pclath+cstack]
  2965                           ;NRF_SendPayload@data stored from wreg
  2966  01A1  00F4               	movwf	NRF_SendPayload@data
  2967  01A2                     l1362:
  2968                           
  2969                           ;main.c: 98:     LATAbits.LATA4 = 0;
  2970  01A2  0022               	movlb	2	; select bank2
  2971  01A3  120C               	bcf	12,4	;volatile
  2972  01A4                     l1364:
  2973                           
  2974                           ;main.c: 99:     NRF_SPI(0xA0);
  2975  01A4  30A0               	movlw	160
  2976  01A5  3182  225B  3181   	fcall	_NRF_SPI
  2977  01A8                     l1366:
  2978                           
  2979                           ;main.c: 100:     for (uint8_t i = 0; i < len; i++)
  2980  01A8  01F5               	clrf	NRF_SendPayload@i
  2981  01A9  29B8               	goto	l1372
  2982  01AA                     l1368:
  2983                           
  2984                           ;main.c: 101:         NRF_SPI(data[i]);
  2985  01AA  0875               	movf	NRF_SendPayload@i,w
  2986  01AB  0774               	addwf	NRF_SendPayload@data,w
  2987  01AC  00F3               	movwf	??_NRF_SendPayload
  2988  01AD  0873               	movf	??_NRF_SendPayload,w
  2989  01AE  0086               	movwf	6
  2990  01AF  0187               	clrf	7
  2991  01B0  0801               	movf	1,w
  2992  01B1  3182  225B  3181   	fcall	_NRF_SPI
  2993  01B4                     l1370:
  2994  01B4  3001               	movlw	1
  2995  01B5  00F3               	movwf	??_NRF_SendPayload
  2996  01B6  0873               	movf	??_NRF_SendPayload,w
  2997  01B7  07F5               	addwf	NRF_SendPayload@i,f
  2998  01B8                     l1372:
  2999  01B8  0872               	movf	NRF_SendPayload@len,w
  3000  01B9  0275               	subwf	NRF_SendPayload@i,w
  3001  01BA  1C03               	skipc
  3002  01BB  29BD               	goto	u291
  3003  01BC  29BE               	goto	u290
  3004  01BD                     u291:
  3005  01BD  29AA               	goto	l1368
  3006  01BE                     u290:
  3007  01BE                     l252:
  3008                           
  3009                           ;main.c: 102:     LATAbits.LATA4 = 1;
  3010  01BE  0022               	movlb	2	; select bank2
  3011  01BF  160C               	bsf	12,4	;volatile
  3012  01C0                     l253:
  3013  01C0  0008               	return
  3014  01C1                     __end_of_NRF_SendPayload:
  3015                           
  3016                           	psect	text11
  3017  00F0                     __ptext11:	
  3018 ;; *************** function _NRF_RX_Init *****************
  3019 ;; Defined at:
  3020 ;;		line 154 in file "main.c"
  3021 ;; Parameters:    Size  Location     Type
  3022 ;;		None
  3023 ;; Auto vars:     Size  Location     Type
  3024 ;;  rx_address      5    9[COMMON] unsigned char [5]
  3025 ;; Return value:  Size  Location     Type
  3026 ;;                  1    wreg      void 
  3027 ;; Registers used:
  3028 ;;		wreg, fsr0l, fsr0h, fsr1l, fsr1h, status,2, status,0, pclath, cstack
  3029 ;; Tracked objects:
  3030 ;;		On entry : 0/0
  3031 ;;		On exit  : 0/0
  3032 ;;		Unchanged: 0/0
  3033 ;; Data sizes:     COMMON   BANK0   BANK1   BANK2
  3034 ;;      Params:         0       0       0       0
  3035 ;;      Locals:         5       0       0       0
  3036 ;;      Temps:          2       0       0       0
  3037 ;;      Totals:         7       0       0       0
  3038 ;;Total ram usage:        7 bytes
  3039 ;; Hardware stack levels used: 1
  3040 ;; Hardware stack levels required when called: 7
  3041 ;; This function calls:
  3042 ;;		_NRF_WriteRegister
  3043 ;;		_NRF_WriteRegisterMulti
  3044 ;; This function is called by:
  3045 ;;		_main
  3046 ;;		_check_and_read_data
  3047 ;; This function uses a non-reentrant model
  3048 ;;
  3049                           
  3050  00F0                     _NRF_RX_Init:	
  3051                           ;psect for function _NRF_RX_Init
  3052                           
  3053  00F0                     l1406:	
  3054                           ;incstack = 0
  3055                           ; Regs used in _NRF_RX_Init: [wreg-fsr1h+status,2+status,0+pclath+cstack]
  3056                           
  3057                           
  3058                           ;main.c: 155:     _delay((unsigned long)((100)*(1000000/4000.0)));
  3059  00F0  3021               	movlw	33
  3060  00F1  00F7               	movwf	??_NRF_RX_Init
  3061  00F2  3076               	movlw	118
  3062  00F3                     u497:
  3063  00F3  0B89               	decfsz	9,f
  3064  00F4  28F3               	goto	u497
  3065  00F5  0BF7               	decfsz	??_NRF_RX_Init,f
  3066  00F6  28F3               	goto	u497
  3067  00F7  3200               	nop2
  3068  00F8                     l1408:
  3069                           
  3070                           ;main.c: 156:     uint8_t rx_address[5] = {'A', 'A', 'A', 'A', 'A'};
  3071  00F8  3020               	movlw	low NRF_RX_Init@F5216
  3072  00F9  0086               	movwf	6
  3073  00FA  3000               	movlw	high NRF_RX_Init@F5216
  3074  00FB  0087               	movwf	7
  3075  00FC  3079               	movlw	low NRF_RX_Init@rx_address
  3076  00FD  0084               	movwf	4
  3077  00FE  3000               	movlw	high NRF_RX_Init@rx_address
  3078  00FF  0085               	movwf	5
  3079  0100  3005               	movlw	5
  3080  0101  00F7               	movwf	??_NRF_RX_Init
  3081  0102                     u310:
  3082  0102  0016               	moviw fsr1++
  3083  0103  001A               	movwi fsr0++
  3084  0104  0BF7               	decfsz	??_NRF_RX_Init,f
  3085  0105  2902               	goto	u310
  3086  0106                     l1410:
  3087                           
  3088                           ;main.c: 158:     LATCbits.LATC5 = 0;
  3089  0106  0022               	movlb	2	; select bank2
  3090  0107  128E               	bcf	14,5	;volatile
  3091  0108                     l1412:
  3092                           
  3093                           ;main.c: 160:     NRF_WriteRegister(0x00, 0x0B);
  3094  0108  300B               	movlw	11
  3095  0109  00F7               	movwf	??_NRF_RX_Init
  3096  010A  0877               	movf	??_NRF_RX_Init,w
  3097  010B  00F2               	movwf	NRF_WriteRegister@value
  3098  010C  3000               	movlw	0
  3099  010D  3181  21EF  3180   	fcall	_NRF_WriteRegister
  3100  0110                     l1414:
  3101                           
  3102                           ;main.c: 161:     NRF_WriteRegister(0x01, 0x01);
  3103  0110  01F2               	clrf	NRF_WriteRegister@value
  3104  0111  0AF2               	incf	NRF_WriteRegister@value,f
  3105  0112  3001               	movlw	1
  3106  0113  3181  21EF  3180   	fcall	_NRF_WriteRegister
  3107  0116                     l1416:
  3108                           
  3109                           ;main.c: 162:     NRF_WriteRegister(0x05, 0x02);
  3110  0116  3002               	movlw	2
  3111  0117  00F7               	movwf	??_NRF_RX_Init
  3112  0118  0877               	movf	??_NRF_RX_Init,w
  3113  0119  00F2               	movwf	NRF_WriteRegister@value
  3114  011A  3005               	movlw	5
  3115  011B  3181  21EF  3180   	fcall	_NRF_WriteRegister
  3116  011E                     l1418:
  3117                           
  3118                           ;main.c: 163:     NRF_WriteRegister(0x06, 0x06);
  3119  011E  3006               	movlw	6
  3120  011F  00F7               	movwf	??_NRF_RX_Init
  3121  0120  0877               	movf	??_NRF_RX_Init,w
  3122  0121  00F2               	movwf	NRF_WriteRegister@value
  3123  0122  3006               	movlw	6
  3124  0123  3181  21EF  3180   	fcall	_NRF_WriteRegister
  3125  0126                     l1420:
  3126                           
  3127                           ;main.c: 164:     NRF_WriteRegister(0x03, 0x03);
  3128  0126  3003               	movlw	3
  3129  0127  00F7               	movwf	??_NRF_RX_Init
  3130  0128  0877               	movf	??_NRF_RX_Init,w
  3131  0129  00F2               	movwf	NRF_WriteRegister@value
  3132  012A  3003               	movlw	3
  3133  012B  3181  21EF  3180   	fcall	_NRF_WriteRegister
  3134  012E                     l1422:
  3135                           
  3136                           ;main.c: 165:     NRF_WriteRegister(0x11, 1);
  3137  012E  01F2               	clrf	NRF_WriteRegister@value
  3138  012F  0AF2               	incf	NRF_WriteRegister@value,f
  3139  0130  3011               	movlw	17
  3140  0131  3181  21EF  3180   	fcall	_NRF_WriteRegister
  3141  0134                     l1424:
  3142                           
  3143                           ;main.c: 166:     NRF_WriteRegisterMulti(0x0A, rx_address, 5);
  3144  0134  3079               	movlw	(low (NRF_RX_Init@rx_address| 0))& (0+255)
  3145  0135  00F7               	movwf	??_NRF_RX_Init
  3146  0136  0877               	movf	??_NRF_RX_Init,w
  3147  0137  00F2               	movwf	NRF_WriteRegisterMulti@data
  3148  0138  3005               	movlw	5
  3149  0139  00F8               	movwf	??_NRF_RX_Init+1
  3150  013A  0878               	movf	??_NRF_RX_Init+1,w
  3151  013B  00F3               	movwf	NRF_WriteRegisterMulti@len
  3152  013C  300A               	movlw	10
  3153  013D  3181  217F  3180   	fcall	_NRF_WriteRegisterMulti
  3154  0140                     l1426:
  3155                           
  3156                           ;main.c: 170: NRF_WriteRegister(0x07, 0x70);
  3157  0140  3070               	movlw	112
  3158  0141  00F7               	movwf	??_NRF_RX_Init
  3159  0142  0877               	movf	??_NRF_RX_Init,w
  3160  0143  00F2               	movwf	NRF_WriteRegister@value
  3161  0144  3007               	movlw	7
  3162  0145  3181  21EF  3180   	fcall	_NRF_WriteRegister
  3163  0148                     l1428:
  3164                           
  3165                           ;main.c: 171:     LATCbits.LATC5 = 1;
  3166  0148  0022               	movlb	2	; select bank2
  3167  0149  168E               	bsf	14,5	;volatile
  3168  014A                     l269:
  3169  014A  0008               	return
  3170  014B                     __end_of_NRF_RX_Init:
  3171                           
  3172                           	psect	text12
  3173  017F                     __ptext12:	
  3174 ;; *************** function _NRF_WriteRegisterMulti *****************
  3175 ;; Defined at:
  3176 ;;		line 88 in file "main.c"
  3177 ;; Parameters:    Size  Location     Type
  3178 ;;  reg             1    wreg     unsigned char 
  3179 ;;  data            1    2[COMMON] PTR unsigned char 
  3180 ;;		 -> NRF_RX_Init@rx_address(5), NRF_TX_Init@tx_address(5), 
  3181 ;;  len             1    3[COMMON] unsigned char 
  3182 ;; Auto vars:     Size  Location     Type
  3183 ;;  reg             1    5[COMMON] unsigned char 
  3184 ;;  i               1    6[COMMON] unsigned char 
  3185 ;; Return value:  Size  Location     Type
  3186 ;;                  1    wreg      void 
  3187 ;; Registers used:
  3188 ;;		wreg, fsr1l, fsr1h, status,2, status,0, pclath, cstack
  3189 ;; Tracked objects:
  3190 ;;		On entry : 0/0
  3191 ;;		On exit  : 0/0
  3192 ;;		Unchanged: 0/0
  3193 ;; Data sizes:     COMMON   BANK0   BANK1   BANK2
  3194 ;;      Params:         2       0       0       0
  3195 ;;      Locals:         2       0       0       0
  3196 ;;      Temps:          1       0       0       0
  3197 ;;      Totals:         5       0       0       0
  3198 ;;Total ram usage:        5 bytes
  3199 ;; Hardware stack levels used: 1
  3200 ;; Hardware stack levels required when called: 6
  3201 ;; This function calls:
  3202 ;;		_NRF_SPI
  3203 ;; This function is called by:
  3204 ;;		_NRF_TX_Init
  3205 ;;		_NRF_RX_Init
  3206 ;; This function uses a non-reentrant model
  3207 ;;
  3208                           
  3209  017F                     _NRF_WriteRegisterMulti:	
  3210                           ;psect for function _NRF_WriteRegisterMulti
  3211                           
  3212                           
  3213                           ;incstack = 0
  3214                           ; Regs used in _NRF_WriteRegisterMulti: [wreg+fsr1l+fsr1h+status,2+status,0+pclath+cstac
      +                          k]
  3215                           ;NRF_WriteRegisterMulti@reg stored from wreg
  3216  017F  00F5               	movwf	NRF_WriteRegisterMulti@reg
  3217  0180                     l1328:
  3218                           
  3219                           ;main.c: 89:     LATAbits.LATA4 = 0;
  3220  0180  0022               	movlb	2	; select bank2
  3221  0181  120C               	bcf	12,4	;volatile
  3222  0182                     l1330:
  3223                           
  3224                           ;main.c: 90:     NRF_SPI(0x20 | (reg & 0x1F));
  3225  0182  0875               	movf	NRF_WriteRegisterMulti@reg,w
  3226  0183  391F               	andlw	31
  3227  0184  3820               	iorlw	32
  3228  0185  3182  225B  3181   	fcall	_NRF_SPI
  3229  0188                     l1332:
  3230                           
  3231                           ;main.c: 91:     for (uint8_t i = 0; i < len; i++)
  3232  0188  01F6               	clrf	NRF_WriteRegisterMulti@i
  3233  0189  2998               	goto	l1338
  3234  018A                     l1334:
  3235                           
  3236                           ;main.c: 92:         NRF_SPI(data[i]);
  3237  018A  0876               	movf	NRF_WriteRegisterMulti@i,w
  3238  018B  0772               	addwf	NRF_WriteRegisterMulti@data,w
  3239  018C  00F4               	movwf	??_NRF_WriteRegisterMulti
  3240  018D  0874               	movf	??_NRF_WriteRegisterMulti,w
  3241  018E  0086               	movwf	6
  3242  018F  0187               	clrf	7
  3243  0190  0801               	movf	1,w
  3244  0191  3182  225B  3181   	fcall	_NRF_SPI
  3245  0194                     l1336:
  3246  0194  3001               	movlw	1
  3247  0195  00F4               	movwf	??_NRF_WriteRegisterMulti
  3248  0196  0874               	movf	??_NRF_WriteRegisterMulti,w
  3249  0197  07F6               	addwf	NRF_WriteRegisterMulti@i,f
  3250  0198                     l1338:
  3251  0198  0873               	movf	NRF_WriteRegisterMulti@len,w
  3252  0199  0276               	subwf	NRF_WriteRegisterMulti@i,w
  3253  019A  1C03               	skipc
  3254  019B  299D               	goto	u251
  3255  019C  299E               	goto	u250
  3256  019D                     u251:
  3257  019D  298A               	goto	l1334
  3258  019E                     u250:
  3259  019E                     l246:
  3260                           
  3261                           ;main.c: 93:     LATAbits.LATA4 = 1;
  3262  019E  0022               	movlb	2	; select bank2
  3263  019F  160C               	bsf	12,4	;volatile
  3264  01A0                     l247:
  3265  01A0  0008               	return
  3266  01A1                     __end_of_NRF_WriteRegisterMulti:
  3267                           
  3268                           	psect	text13
  3269  01EF                     __ptext13:	
  3270 ;; *************** function _NRF_WriteRegister *****************
  3271 ;; Defined at:
  3272 ;;		line 80 in file "main.c"
  3273 ;; Parameters:    Size  Location     Type
  3274 ;;  reg             1    wreg     unsigned char 
  3275 ;;  value           1    2[COMMON] unsigned char 
  3276 ;; Auto vars:     Size  Location     Type
  3277 ;;  reg             1    3[COMMON] unsigned char 
  3278 ;; Return value:  Size  Location     Type
  3279 ;;                  1    wreg      void 
  3280 ;; Registers used:
  3281 ;;		wreg, status,2, status,0, pclath, cstack
  3282 ;; Tracked objects:
  3283 ;;		On entry : 0/0
  3284 ;;		On exit  : 0/0
  3285 ;;		Unchanged: 0/0
  3286 ;; Data sizes:     COMMON   BANK0   BANK1   BANK2
  3287 ;;      Params:         1       0       0       0
  3288 ;;      Locals:         1       0       0       0
  3289 ;;      Temps:          0       0       0       0
  3290 ;;      Totals:         2       0       0       0
  3291 ;;Total ram usage:        2 bytes
  3292 ;; Hardware stack levels used: 1
  3293 ;; Hardware stack levels required when called: 6
  3294 ;; This function calls:
  3295 ;;		_NRF_SPI
  3296 ;; This function is called by:
  3297 ;;		_NRF_TX_Init
  3298 ;;		_NRF_RX_Init
  3299 ;;		_main
  3300 ;;		_check_and_read_data
  3301 ;; This function uses a non-reentrant model
  3302 ;;
  3303                           
  3304  01EF                     _NRF_WriteRegister:	
  3305                           ;psect for function _NRF_WriteRegister
  3306                           
  3307                           
  3308                           ;incstack = 0
  3309                           ; Regs used in _NRF_WriteRegister: [wreg+status,2+status,0+pclath+cstack]
  3310                           ;NRF_WriteRegister@reg stored from wreg
  3311  01EF  00F3               	movwf	NRF_WriteRegister@reg
  3312  01F0                     l1322:
  3313                           
  3314                           ;main.c: 81:     LATAbits.LATA4 = 0;
  3315  01F0  0022               	movlb	2	; select bank2
  3316  01F1  120C               	bcf	12,4	;volatile
  3317  01F2                     l1324:
  3318                           
  3319                           ;main.c: 82:     NRF_SPI(0x20 | (reg & 0x1F));
  3320  01F2  0873               	movf	NRF_WriteRegister@reg,w
  3321  01F3  391F               	andlw	31
  3322  01F4  3820               	iorlw	32
  3323  01F5  3182  225B  3181   	fcall	_NRF_SPI
  3324                           
  3325                           ;main.c: 83:     NRF_SPI(value);
  3326  01F8  0872               	movf	NRF_WriteRegister@value,w
  3327  01F9  3182  225B  3181   	fcall	_NRF_SPI
  3328  01FC                     l1326:
  3329                           
  3330                           ;main.c: 84:     LATAbits.LATA4 = 1;
  3331  01FC  0022               	movlb	2	; select bank2
  3332  01FD  160C               	bsf	12,4	;volatile
  3333  01FE                     l241:
  3334  01FE  0008               	return
  3335  01FF                     __end_of_NRF_WriteRegister:
  3336                           
  3337                           	psect	text14
  3338  022F                     __ptext14:	
  3339 ;; *************** function _NRF_FlushTX *****************
  3340 ;; Defined at:
  3341 ;;		line 106 in file "main.c"
  3342 ;; Parameters:    Size  Location     Type
  3343 ;;		None
  3344 ;; Auto vars:     Size  Location     Type
  3345 ;;		None
  3346 ;; Return value:  Size  Location     Type
  3347 ;;                  1    wreg      void 
  3348 ;; Registers used:
  3349 ;;		wreg, status,2, status,0, pclath, cstack
  3350 ;; Tracked objects:
  3351 ;;		On entry : 0/0
  3352 ;;		On exit  : 0/0
  3353 ;;		Unchanged: 0/0
  3354 ;; Data sizes:     COMMON   BANK0   BANK1   BANK2
  3355 ;;      Params:         0       0       0       0
  3356 ;;      Locals:         0       0       0       0
  3357 ;;      Temps:          0       0       0       0
  3358 ;;      Totals:         0       0       0       0
  3359 ;;Total ram usage:        0 bytes
  3360 ;; Hardware stack levels used: 1
  3361 ;; Hardware stack levels required when called: 6
  3362 ;; This function calls:
  3363 ;;		_NRF_SPI
  3364 ;; This function is called by:
  3365 ;;		_main
  3366 ;; This function uses a non-reentrant model
  3367 ;;
  3368                           
  3369  022F                     _NRF_FlushTX:	
  3370                           ;psect for function _NRF_FlushTX
  3371                           
  3372  022F                     l1374:	
  3373                           ;incstack = 0
  3374                           ; Regs used in _NRF_FlushTX: [wreg+status,2+status,0+pclath+cstack]
  3375                           
  3376                           
  3377                           ;main.c: 107:     LATAbits.LATA4 = 0;
  3378  022F  0022               	movlb	2	; select bank2
  3379  0230  120C               	bcf	12,4	;volatile
  3380  0231                     l1376:
  3381                           
  3382                           ;main.c: 108:     NRF_SPI(0xE1);
  3383  0231  30E1               	movlw	225
  3384  0232  3182  225B  3182   	fcall	_NRF_SPI
  3385  0235                     l1378:
  3386                           
  3387                           ;main.c: 109:     LATAbits.LATA4 = 1;
  3388  0235  0022               	movlb	2	; select bank2
  3389  0236  160C               	bsf	12,4	;volatile
  3390  0237                     l256:
  3391  0237  0008               	return
  3392  0238                     __end_of_NRF_FlushTX:
  3393                           
  3394                           	psect	text15
  3395  025B                     __ptext15:	
  3396 ;; *************** function _NRF_SPI *****************
  3397 ;; Defined at:
  3398 ;;		line 75 in file "main.c"
  3399 ;; Parameters:    Size  Location     Type
  3400 ;;  data            1    wreg     unsigned char 
  3401 ;; Auto vars:     Size  Location     Type
  3402 ;;  data            1    1[COMMON] unsigned char 
  3403 ;; Return value:  Size  Location     Type
  3404 ;;                  1    wreg      unsigned char 
  3405 ;; Registers used:
  3406 ;;		wreg, pclath, cstack
  3407 ;; Tracked objects:
  3408 ;;		On entry : 0/0
  3409 ;;		On exit  : 0/0
  3410 ;;		Unchanged: 0/0
  3411 ;; Data sizes:     COMMON   BANK0   BANK1   BANK2
  3412 ;;      Params:         0       0       0       0
  3413 ;;      Locals:         1       0       0       0
  3414 ;;      Temps:          0       0       0       0
  3415 ;;      Totals:         1       0       0       0
  3416 ;;Total ram usage:        1 bytes
  3417 ;; Hardware stack levels used: 1
  3418 ;; Hardware stack levels required when called: 5
  3419 ;; This function calls:
  3420 ;;		_SPI1_ExchangeByte
  3421 ;; This function is called by:
  3422 ;;		_NRF_WriteRegister
  3423 ;;		_NRF_WriteRegisterMulti
  3424 ;;		_NRF_SendPayload
  3425 ;;		_NRF_FlushTX
  3426 ;;		_NRF_ReadRegister
  3427 ;;		_NRF_ReadPayload
  3428 ;; This function uses a non-reentrant model
  3429 ;;
  3430                           
  3431  025B                     _NRF_SPI:	
  3432                           ;psect for function _NRF_SPI
  3433                           
  3434                           
  3435                           ;incstack = 0
  3436                           ; Regs used in _NRF_SPI: [wreg+pclath+cstack]
  3437                           ;NRF_SPI@data stored from wreg
  3438  025B  00F1               	movwf	NRF_SPI@data
  3439  025C                     l1254:
  3440                           
  3441                           ;main.c: 76:     return SPI1_ExchangeByte(data);
  3442  025C  0871               	movf	NRF_SPI@data,w
  3443  025D  3182  220E  3182   	fcall	_SPI1_ExchangeByte
  3444  0260                     l238:
  3445  0260  0008               	return
  3446  0261                     __end_of_NRF_SPI:
  3447                           
  3448                           	psect	text16
  3449  020E                     __ptext16:	
  3450 ;; *************** function _SPI1_ExchangeByte *****************
  3451 ;; Defined at:
  3452 ;;		line 99 in file "mcc_generated_files/spi1.c"
  3453 ;; Parameters:    Size  Location     Type
  3454 ;;  data            1    wreg     unsigned char 
  3455 ;; Auto vars:     Size  Location     Type
  3456 ;;  data            1    0[COMMON] unsigned char 
  3457 ;; Return value:  Size  Location     Type
  3458 ;;                  1    wreg      unsigned char 
  3459 ;; Registers used:
  3460 ;;		wreg
  3461 ;; Tracked objects:
  3462 ;;		On entry : 0/0
  3463 ;;		On exit  : 0/0
  3464 ;;		Unchanged: 0/0
  3465 ;; Data sizes:     COMMON   BANK0   BANK1   BANK2
  3466 ;;      Params:         0       0       0       0
  3467 ;;      Locals:         1       0       0       0
  3468 ;;      Temps:          0       0       0       0
  3469 ;;      Totals:         1       0       0       0
  3470 ;;Total ram usage:        1 bytes
  3471 ;; Hardware stack levels used: 1
  3472 ;; Hardware stack levels required when called: 4
  3473 ;; This function calls:
  3474 ;;		Nothing
  3475 ;; This function is called by:
  3476 ;;		_NRF_SPI
  3477 ;;		_SPI1_WriteBlock
  3478 ;;		_SPI1_ReadBlock
  3479 ;;		_read_config
  3480 ;; This function uses a non-reentrant model
  3481 ;;
  3482                           
  3483  020E                     _SPI1_ExchangeByte:	
  3484                           ;psect for function _SPI1_ExchangeByte
  3485                           
  3486                           
  3487                           ;incstack = 0
  3488                           ; Regs used in _SPI1_ExchangeByte: [wreg]
  3489                           ;SPI1_ExchangeByte@data stored from wreg
  3490  020E  00F0               	movwf	SPI1_ExchangeByte@data
  3491  020F                     l1244:
  3492                           
  3493                           ;mcc_generated_files/spi1.c: 99: uint8_t SPI1_ExchangeByte(uint8_t data);mcc_generated_f
      +                          iles/spi1.c: 100: {;mcc_generated_files/spi1.c: 101:     SSP1BUF = data;
  3494  020F  0870               	movf	SPI1_ExchangeByte@data,w
  3495  0210  0024               	movlb	4	; select bank4
  3496  0211  0091               	movwf	17	;volatile
  3497  0212                     l47:	
  3498                           ;mcc_generated_files/spi1.c: 102:     while(!PIR1bits.SSP1IF);
  3499                           
  3500  0212  0020               	movlb	0	; select bank0
  3501  0213  1D91               	btfss	17,3	;volatile
  3502  0214  2A16               	goto	u231
  3503  0215  2A17               	goto	u230
  3504  0216                     u231:
  3505  0216  2A12               	goto	l47
  3506  0217                     u230:
  3507  0217                     l49:
  3508                           
  3509                           ;mcc_generated_files/spi1.c: 103:     PIR1bits.SSP1IF = 0;
  3510  0217  1191               	bcf	17,3	;volatile
  3511  0218                     l1246:
  3512                           
  3513                           ;mcc_generated_files/spi1.c: 104:     return SSP1BUF;
  3514  0218  0024               	movlb	4	; select bank4
  3515  0219  0811               	movf	17,w	;volatile
  3516  021A                     l50:
  3517  021A  0008               	return
  3518  021B                     __end_of_SPI1_ExchangeByte:
  3519                           
  3520                           	psect	intentry
  3521  0004                     __pintentry:	
  3522 ;; *************** function _INTERRUPT_InterruptManager *****************
  3523 ;; Defined at:
  3524 ;;		line 52 in file "mcc_generated_files/interrupt_manager.c"
  3525 ;; Parameters:    Size  Location     Type
  3526 ;;		None
  3527 ;; Auto vars:     Size  Location     Type
  3528 ;;		None
  3529 ;; Return value:  Size  Location     Type
  3530 ;;                  1    wreg      void 
  3531 ;; Registers used:
  3532 ;;		wreg, status,2, status,0, pclath, cstack
  3533 ;; Tracked objects:
  3534 ;;		On entry : 0/0
  3535 ;;		On exit  : 0/0
  3536 ;;		Unchanged: 0/0
  3537 ;; Data sizes:     COMMON   BANK0   BANK1   BANK2
  3538 ;;      Params:         0       0       0       0
  3539 ;;      Locals:         0       0       0       0
  3540 ;;      Temps:          0       0       0       0
  3541 ;;      Totals:         0       0       0       0
  3542 ;;Total ram usage:        0 bytes
  3543 ;; Hardware stack levels used: 1
  3544 ;; Hardware stack levels required when called: 3
  3545 ;; This function calls:
  3546 ;;		_PIN_MANAGER_IOC
  3547 ;; This function is called by:
  3548 ;;		Interrupt level 1
  3549 ;; This function uses a non-reentrant model
  3550 ;;
  3551                           
  3552  0004                     _INTERRUPT_InterruptManager:
  3553                           
  3554                           ;incstack = 0
  3555  0004  147E               	bsf	int$flags,0	;set compiler interrupt flag (level 1)
  3556                           
  3557                           ; Regs used in _INTERRUPT_InterruptManager: [wreg+status,2+status,0+pclath+cstack]
  3558  0005  3180               	pagesel	$
  3559  0006                     i1l1474:
  3560                           
  3561                           ;mcc_generated_files/interrupt_manager.c: 55:     if(PIE0bits.IOCIE == 1 && PIR0bits.IOC
      +                          IF == 1)
  3562  0006  0021               	movlb	1	; select bank1
  3563  0007  1E10               	btfss	16,4	;volatile
  3564  0008  280A               	goto	u35_21
  3565  0009  280B               	goto	u35_20
  3566  000A                     u35_21:
  3567  000A  2813               	goto	i1l148
  3568  000B                     u35_20:
  3569  000B                     i1l1476:
  3570  000B  0020               	movlb	0	; select bank0
  3571  000C  1E10               	btfss	16,4	;volatile
  3572  000D  280F               	goto	u36_21
  3573  000E  2810               	goto	u36_20
  3574  000F                     u36_21:
  3575  000F  2813               	goto	i1l148
  3576  0010                     u36_20:
  3577  0010                     i1l1478:
  3578                           
  3579                           ;mcc_generated_files/interrupt_manager.c: 56:     {;mcc_generated_files/interrupt_manage
      +                          r.c: 57:         PIN_MANAGER_IOC();
  3580  0010  3182  2238  3180   	fcall	_PIN_MANAGER_IOC
  3581  0013                     i1l148:	
  3582                           ;mcc_generated_files/interrupt_manager.c: 58:     }
  3583                           
  3584  0013  107E               	bcf	int$flags,0	;clear compiler interrupt flag (level 1)
  3585  0014  0009               	retfie
  3586  0015                     __end_of_INTERRUPT_InterruptManager:
  3587                           
  3588                           	psect	text18
  3589  0238                     __ptext18:	
  3590 ;; *************** function _PIN_MANAGER_IOC *****************
  3591 ;; Defined at:
  3592 ;;		line 127 in file "mcc_generated_files/pin_manager.c"
  3593 ;; Parameters:    Size  Location     Type
  3594 ;;		None
  3595 ;; Auto vars:     Size  Location     Type
  3596 ;;		None
  3597 ;; Return value:  Size  Location     Type
  3598 ;;                  1    wreg      void 
  3599 ;; Registers used:
  3600 ;;		wreg, status,2, status,0, pclath, cstack
  3601 ;; Tracked objects:
  3602 ;;		On entry : 0/0
  3603 ;;		On exit  : 0/0
  3604 ;;		Unchanged: 0/0
  3605 ;; Data sizes:     COMMON   BANK0   BANK1   BANK2
  3606 ;;      Params:         0       0       0       0
  3607 ;;      Locals:         0       0       0       0
  3608 ;;      Temps:          0       0       0       0
  3609 ;;      Totals:         0       0       0       0
  3610 ;;Total ram usage:        0 bytes
  3611 ;; Hardware stack levels used: 1
  3612 ;; Hardware stack levels required when called: 2
  3613 ;; This function calls:
  3614 ;;		_IOCAF5_ISR
  3615 ;; This function is called by:
  3616 ;;		_INTERRUPT_InterruptManager
  3617 ;; This function uses a non-reentrant model
  3618 ;;
  3619                           
  3620  0238                     _PIN_MANAGER_IOC:	
  3621                           ;psect for function _PIN_MANAGER_IOC
  3622                           
  3623  0238                     i1l1358:	
  3624                           ;incstack = 0
  3625                           ; Regs used in _PIN_MANAGER_IOC: [wreg+status,2+status,0+pclath+cstack]
  3626                           
  3627                           
  3628                           ;mcc_generated_files/pin_manager.c: 130:     if(IOCAFbits.IOCAF5 == 1)
  3629  0238  0027               	movlb	7	; select bank7
  3630  0239  1E93               	btfss	19,5	;volatile
  3631  023A  2A3C               	goto	u28_21
  3632  023B  2A3D               	goto	u28_20
  3633  023C                     u28_21:
  3634  023C  2A40               	goto	i1l207
  3635  023D                     u28_20:
  3636  023D                     i1l1360:
  3637                           
  3638                           ;mcc_generated_files/pin_manager.c: 131:     {;mcc_generated_files/pin_manager.c: 132:  
      +                                 IOCAF5_ISR();
  3639  023D  3181  21FF  3182   	fcall	_IOCAF5_ISR
  3640  0240                     i1l207:
  3641  0240  0008               	return
  3642  0241                     __end_of_PIN_MANAGER_IOC:
  3643                           
  3644                           	psect	text19
  3645  01FF                     __ptext19:	
  3646 ;; *************** function _IOCAF5_ISR *****************
  3647 ;; Defined at:
  3648 ;;		line 139 in file "mcc_generated_files/pin_manager.c"
  3649 ;; Parameters:    Size  Location     Type
  3650 ;;		None
  3651 ;; Auto vars:     Size  Location     Type
  3652 ;;		None
  3653 ;; Return value:  Size  Location     Type
  3654 ;;                  1    wreg      void 
  3655 ;; Registers used:
  3656 ;;		wreg, status,2, status,0, pclath, cstack
  3657 ;; Tracked objects:
  3658 ;;		On entry : 0/0
  3659 ;;		On exit  : 0/0
  3660 ;;		Unchanged: 0/0
  3661 ;; Data sizes:     COMMON   BANK0   BANK1   BANK2
  3662 ;;      Params:         0       0       0       0
  3663 ;;      Locals:         0       0       0       0
  3664 ;;      Temps:          0       0       0       0
  3665 ;;      Totals:         0       0       0       0
  3666 ;;Total ram usage:        0 bytes
  3667 ;; Hardware stack levels used: 1
  3668 ;; Hardware stack levels required when called: 1
  3669 ;; This function calls:
  3670 ;;		Absolute function
  3671 ;;		_IOCAF5_DefaultInterruptHandler
  3672 ;; This function is called by:
  3673 ;;		_PIN_MANAGER_IOC
  3674 ;; This function uses a non-reentrant model
  3675 ;;
  3676                           
  3677  01FF                     _IOCAF5_ISR:	
  3678                           ;psect for function _IOCAF5_ISR
  3679                           
  3680  01FF                     i1l1316:	
  3681                           ;incstack = 0
  3682                           ; Regs used in _IOCAF5_ISR: [wreg+status,2+status,0+pclath+cstack]
  3683                           
  3684                           
  3685                           ;mcc_generated_files/pin_manager.c: 144:     if(IOCAF5_InterruptHandler)
  3686  01FF  0020               	movlb	0	; select bank0
  3687  0200  082B               	movf	_IOCAF5_InterruptHandler,w
  3688  0201  042C               	iorwf	_IOCAF5_InterruptHandler+1,w
  3689  0202  1903               	btfsc	3,2
  3690  0203  2A05               	goto	u24_21
  3691  0204  2A06               	goto	u24_20
  3692  0205                     u24_21:
  3693  0205  2A0B               	goto	i1l1320
  3694  0206                     u24_20:
  3695  0206                     i1l1318:
  3696                           
  3697                           ;mcc_generated_files/pin_manager.c: 145:     {;mcc_generated_files/pin_manager.c: 146:  
      +                                 IOCAF5_InterruptHandler();
  3698  0206  082C               	movf	_IOCAF5_InterruptHandler+1,w
  3699  0207  008A               	movwf	10
  3700  0208  082B               	movf	_IOCAF5_InterruptHandler,w
  3701  0209  000A               	callw
  3702  020A  3181               	pagesel	$
  3703  020B                     i1l1320:
  3704                           
  3705                           ;mcc_generated_files/pin_manager.c: 148:     IOCAFbits.IOCAF5 = 0;
  3706  020B  0027               	movlb	7	; select bank7
  3707  020C  1293               	bcf	19,5	;volatile
  3708  020D                     i1l211:
  3709  020D  0008               	return
  3710  020E                     __end_of_IOCAF5_ISR:
  3711                           
  3712                           	psect	text20
  3713  0269                     __ptext20:	
  3714 ;; *************** function _IOCAF5_DefaultInterruptHandler *****************
  3715 ;; Defined at:
  3716 ;;		line 161 in file "mcc_generated_files/pin_manager.c"
  3717 ;; Parameters:    Size  Location     Type
  3718 ;;		None
  3719 ;; Auto vars:     Size  Location     Type
  3720 ;;		None
  3721 ;; Return value:  Size  Location     Type
  3722 ;;                  1    wreg      void 
  3723 ;; Registers used:
  3724 ;;		None
  3725 ;; Tracked objects:
  3726 ;;		On entry : 0/0
  3727 ;;		On exit  : 0/0
  3728 ;;		Unchanged: 0/0
  3729 ;; Data sizes:     COMMON   BANK0   BANK1   BANK2
  3730 ;;      Params:         0       0       0       0
  3731 ;;      Locals:         0       0       0       0
  3732 ;;      Temps:          0       0       0       0
  3733 ;;      Totals:         0       0       0       0
  3734 ;;Total ram usage:        0 bytes
  3735 ;; Hardware stack levels used: 1
  3736 ;; This function calls:
  3737 ;;		Nothing
  3738 ;; This function is called by:
  3739 ;;		_PIN_MANAGER_Initialize
  3740 ;;		_IOCAF5_ISR
  3741 ;; This function uses a non-reentrant model
  3742 ;;
  3743                           
  3744  0269                     _IOCAF5_DefaultInterruptHandler:	
  3745                           ;psect for function _IOCAF5_DefaultInterruptHandler
  3746                           
  3747  0269                     i1l217:	
  3748                           ;incstack = 0
  3749                           ; Regs used in _IOCAF5_DefaultInterruptHandler: []
  3750                           
  3751  0269  0008               	return
  3752  026A                     __end_of_IOCAF5_DefaultInterruptHandler:
  3753  007E                     btemp	set	126	;btemp
  3754  007E                     int$flags	set	126
  3755  007E                     wtemp0	set	126
  3756                           
  3757                           	psect	idloc
  3758                           
  3759                           ;Config register IDLOC0 @ 0x8000
  3760                           ;	unspecified, using default values
  3761  8000                     	org	32768
  3762  8000  3FFF               	dw	16383
  3763                           
  3764                           ;Config register IDLOC1 @ 0x8001
  3765                           ;	unspecified, using default values
  3766  8001                     	org	32769
  3767  8001  3FFF               	dw	16383
  3768                           
  3769                           ;Config register IDLOC2 @ 0x8002
  3770                           ;	unspecified, using default values
  3771  8002                     	org	32770
  3772  8002  3FFF               	dw	16383
  3773                           
  3774                           ;Config register IDLOC3 @ 0x8003
  3775                           ;	unspecified, using default values
  3776  8003                     	org	32771
  3777  8003  3FFF               	dw	16383
  3778                           
  3779                           	psect	config
  3780                           
  3781                           ;Config register CONFIG1 @ 0x8007
  3782                           ;	FEXTOSC External Oscillator mode Selection bits
  3783                           ;	FEXTOSC = OFF, Oscillator not enabled
  3784                           ;	Power-up default value for COSC bits
  3785                           ;	RSTOSC = HFINT1, HFINTOSC (1MHz)
  3786                           ;	Clock Out Enable bit
  3787                           ;	CLKOUTEN = OFF, CLKOUT function is disabled; I/O or oscillator function on OSC2
  3788                           ;	Clock Switch Enable bit
  3789                           ;	CSWEN = ON, Writing to NOSC and NDIV is allowed
  3790                           ;	Fail-Safe Clock Monitor Enable
  3791                           ;	FCMEN = ON, Fail-Safe Clock Monitor is enabled
  3792  8007                     	org	32775
  3793  8007  3FEC               	dw	16364
  3794                           
  3795                           ;Config register CONFIG2 @ 0x8008
  3796                           ;	Master Clear Enable bit
  3797                           ;	MCLRE = ON, MCLR/VPP pin function is MCLR; Weak pull-up enabled
  3798                           ;	Power-up Timer Enable bit
  3799                           ;	PWRTE = OFF, PWRT disabled
  3800                           ;	Watchdog Timer Enable bits
  3801                           ;	WDTE = OFF, WDT disabled; SWDTEN is ignored
  3802                           ;	Low-power BOR enable bit
  3803                           ;	LPBOREN = OFF, ULPBOR disabled
  3804                           ;	Brown-out Reset Enable bits
  3805                           ;	BOREN = ON, Brown-out Reset enabled, SBOREN bit ignored
  3806                           ;	Brown-out Reset Voltage selection bit
  3807                           ;	BORV = LOW, Brown-out voltage (Vbor) set to 2.45V
  3808                           ;	PPSLOCK bit One-Way Set Enable bit
  3809                           ;	PPS1WAY = ON, The PPSLOCK bit can be cleared and set only once; PPS registers remain l
      +                          ocked after one clear/set cycle
  3810                           ;	Stack Overflow/Underflow Reset Enable bit
  3811                           ;	STVREN = ON, Stack Overflow or Underflow will cause a Reset
  3812                           ;	Debugger enable bit
  3813                           ;	DEBUG = OFF, Background debugger disabled
  3814  8008                     	org	32776
  3815  8008  3FF3               	dw	16371
  3816                           
  3817                           ;Config register CONFIG3 @ 0x8009
  3818                           ;	User NVM self-write protection bits
  3819                           ;	WRT = OFF, Write protection off
  3820                           ;	Low Voltage Programming Enable bit
  3821                           ;	LVP = ON, Low Voltage programming enabled. MCLR/VPP pin function is MCLR. MCLRE config
      +                          uration bit is ignored.
  3822  8009                     	org	32777
  3823  8009  3FFF               	dw	16383
  3824                           
  3825                           ;Config register CONFIG4 @ 0x800A
  3826                           ;	User NVM Program Memory Code Protection bit
  3827                           ;	CP = OFF, User NVM code protection disabled
  3828                           ;	Data NVM Memory Code Protection bit
  3829                           ;	CPD = OFF, Data NVM code protection disabled
  3830  800A                     	org	32778
  3831  800A  3FFF               	dw	16383

Data Sizes:
    Strings     0
    Constant    4
    Data        11
    BSS         0
    Persistent  36
    Stack       0

Auto Spaces:
    Space          Size  Autos    Used
    COMMON           14     14      14
    BANK0            80      2      17
    BANK1            80      0       0
    BANK2            80      0       0

Pointer List with Targets:

    NRF_SendPayload@data	PTR unsigned char  size(1) Largest target is 1
		 -> main@data(BANK0[1]), 

    NRF_WriteRegisterMulti@data	PTR unsigned char  size(1) Largest target is 5
		 -> NRF_RX_Init@rx_address(COMMON[5]), NRF_TX_Init@tx_address(COMMON[5]), 

    IOCAF5_SetInterruptHandler@InterruptHandler	PTR FTN()void  size(2) Largest target is 1
		 -> IOCAF5_DefaultInterruptHandler(), 

    IOCAF5_InterruptHandler	PTR FTN()void  size(2) Largest target is 1
		 -> IOCAF5_DefaultInterruptHandler(), Absolute function(), 

    SPI1_SetInterruptHandler@handler	PTR FTN()void  size(2) Largest target is 1
		 -> SPI1_Isr(), 

    MSSP1_InterruptHandler	PTR FTN()void  size(2) Largest target is 1
		 -> Absolute function(), SPI1_Isr(), 


Critical Paths under _main in COMMON

    _main->_NRF_RX_Init
    _main->_NRF_TX_Init
    _SPI1_Initialize->_SPI1_SetInterruptHandler
    _PIN_MANAGER_Initialize->_IOCAF5_SetInterruptHandler
    _NRF_TX_Init->_NRF_WriteRegisterMulti
    _NRF_SendPayload->_NRF_SPI
    _NRF_RX_Init->_NRF_WriteRegisterMulti
    _NRF_WriteRegisterMulti->_NRF_SPI
    _NRF_WriteRegister->_NRF_SPI
    _NRF_FlushTX->_NRF_SPI
    _NRF_SPI->_SPI1_ExchangeByte

Critical Paths under _INTERRUPT_InterruptManager in COMMON

    None.

Critical Paths under _main in BANK0

    None.

Critical Paths under _INTERRUPT_InterruptManager in BANK0

    None.

Critical Paths under _main in BANK1

    None.

Critical Paths under _INTERRUPT_InterruptManager in BANK1

    None.

Critical Paths under _main in BANK2

    None.

Critical Paths under _INTERRUPT_InterruptManager in BANK2

    None.

Call Graph Tables:

 ---------------------------------------------------------------------------------
 (Depth) Function   	        Calls       Base Space   Used Autos Params    Refs
 ---------------------------------------------------------------------------------
 (0) _main                                                 2     2      0    5485
                                              0 BANK0      2     2      0
                        _NRF_FlushTX
                        _NRF_RX_Init
                    _NRF_SendPayload
                        _NRF_TX_Init
                  _NRF_WriteRegister
                  _SYSTEM_Initialize
 ---------------------------------------------------------------------------------
 (1) _SYSTEM_Initialize                                    0     0      0     196
              _OSCILLATOR_Initialize
             _PIN_MANAGER_Initialize
                     _PMD_Initialize
                    _SPI1_Initialize
                     _WDT_Initialize
 ---------------------------------------------------------------------------------
 (2) _WDT_Initialize                                       0     0      0       0
 ---------------------------------------------------------------------------------
 (2) _SPI1_Initialize                                      0     0      0      98
           _SPI1_SetInterruptHandler
 ---------------------------------------------------------------------------------
 (3) _SPI1_SetInterruptHandler                             2     0      2      98
                                              0 COMMON     2     0      2
 ---------------------------------------------------------------------------------
 (2) _PMD_Initialize                                       0     0      0       0
 ---------------------------------------------------------------------------------
 (2) _PIN_MANAGER_Initialize                               0     0      0      98
         _IOCAF5_SetInterruptHandler
 ---------------------------------------------------------------------------------
 (3) _IOCAF5_SetInterruptHandler                           2     0      2      98
                                              0 COMMON     2     0      2
 ---------------------------------------------------------------------------------
 (2) _OSCILLATOR_Initialize                                0     0      0       0
 ---------------------------------------------------------------------------------
 (1) _NRF_TX_Init                                          7     7      0    1886
                                              7 COMMON     7     7      0
                  _NRF_WriteRegister
             _NRF_WriteRegisterMulti
 ---------------------------------------------------------------------------------
 (1) _NRF_SendPayload                                      4     3      1     243
                                              2 COMMON     4     3      1
                            _NRF_SPI
 ---------------------------------------------------------------------------------
 (1) _NRF_RX_Init                                          7     7      0    1864
                                              7 COMMON     7     7      0
                  _NRF_WriteRegister
             _NRF_WriteRegisterMulti
 ---------------------------------------------------------------------------------
 (2) _NRF_WriteRegisterMulti                               5     3      2     612
                                              2 COMMON     5     3      2
                            _NRF_SPI
 ---------------------------------------------------------------------------------
 (1) _NRF_WriteRegister                                    2     1      1    1228
                                              2 COMMON     2     1      1
                            _NRF_SPI
 ---------------------------------------------------------------------------------
 (1) _NRF_FlushTX                                          0     0      0      44
                            _NRF_SPI
 ---------------------------------------------------------------------------------
 (2) _NRF_SPI                                              1     1      0      44
                                              1 COMMON     1     1      0
                  _SPI1_ExchangeByte
 ---------------------------------------------------------------------------------
 (3) _SPI1_ExchangeByte                                    1     1      0      22
                                              0 COMMON     1     1      0
 ---------------------------------------------------------------------------------
 Estimated maximum stack depth 3
 ---------------------------------------------------------------------------------
 (Depth) Function   	        Calls       Base Space   Used Autos Params    Refs
 ---------------------------------------------------------------------------------
 (5) _INTERRUPT_InterruptManager                           0     0      0       0
                    _PIN_MANAGER_IOC
 ---------------------------------------------------------------------------------
 (6) _PIN_MANAGER_IOC                                      0     0      0       0
                         _IOCAF5_ISR
 ---------------------------------------------------------------------------------
 (7) _IOCAF5_ISR                                           0     0      0       0
                   Absolute function *
     _IOCAF5_DefaultInterruptHandler *
 ---------------------------------------------------------------------------------
 (8) _IOCAF5_DefaultInterruptHandler                       0     0      0       0
 ---------------------------------------------------------------------------------
 (8) Absolute function(Fake)                               0     0      0       0
 ---------------------------------------------------------------------------------
 Estimated maximum stack depth 8
 ---------------------------------------------------------------------------------

 Call Graph Graphs:

 _main (ROOT)
   _NRF_FlushTX
     _NRF_SPI
       _SPI1_ExchangeByte
   _NRF_RX_Init
     _NRF_WriteRegister
       _NRF_SPI
     _NRF_WriteRegisterMulti
       _NRF_SPI
   _NRF_SendPayload
     _NRF_SPI
   _NRF_TX_Init
     _NRF_WriteRegister
     _NRF_WriteRegisterMulti
   _NRF_WriteRegister
   _SYSTEM_Initialize
     _OSCILLATOR_Initialize
     _PIN_MANAGER_Initialize
       _IOCAF5_SetInterruptHandler
     _PMD_Initialize
     _SPI1_Initialize
       _SPI1_SetInterruptHandler
     _WDT_Initialize

 _INTERRUPT_InterruptManager (ROOT)
   _PIN_MANAGER_IOC
     _IOCAF5_ISR
       Absolute function(Fake) *
       _IOCAF5_DefaultInterruptHandler *

 Address spaces:
Name               Size   Autos  Total    Cost      Usage
BIGRAM              F0      0       0       0        0.0%
EEDATA             100      0       0       0        0.0%
NULL                 0      0       0       0        0.0%
CODE                 0      0       0       0        0.0%
BITCOMMON            E      0       0       1        0.0%
BITSFR0              0      0       0       1        0.0%
SFR0                 0      0       0       1        0.0%
COMMON               E      E       E       2      100.0%
BITSFR1              0      0       0       2        0.0%
SFR1                 0      0       0       2        0.0%
BITSFR2              0      0       0       3        0.0%
SFR2                 0      0       0       3        0.0%
STACK                0      0       0       3        0.0%
BITSFR3              0      0       0       4        0.0%
SFR3                 0      0       0       4        0.0%
ABS                  0      0      1F       4        0.0%
BITBANK0            50      0       0       5        0.0%
BITSFR4              0      0       0       5        0.0%
SFR4                 0      0       0       5        0.0%
BANK0               50      2      11       6       21.2%
BITSFR5              0      0       0       6        0.0%
SFR5                 0      0       0       6        0.0%
BITBANK1            50      0       0       7        0.0%
BITSFR6              0      0       0       7        0.0%
SFR6                 0      0       0       7        0.0%
BANK1               50      0       0       8        0.0%
BITSFR7              0      0       0       8        0.0%
SFR7                 0      0       0       8        0.0%
BITBANK2            50      0       0       9        0.0%
BITSFR8              0      0       0       9        0.0%
SFR8                 0      0       0       9        0.0%
BANK2               50      0       0      10        0.0%
BITSFR9              0      0       0      10        0.0%
SFR9                 0      0       0      10        0.0%
BITSFR10             0      0       0      11        0.0%
SFR10                0      0       0      11        0.0%
DATA                 0      0      1F      11        0.0%
BITSFR11             0      0       0      12        0.0%
SFR11                0      0       0      12        0.0%
BITSFR12             0      0       0      13        0.0%
SFR12                0      0       0      13        0.0%
BITSFR13             0      0       0      14        0.0%
SFR13                0      0       0      14        0.0%
BITSFR14             0      0       0      15        0.0%
SFR14                0      0       0      15        0.0%
BITSFR15             0      0       0      16        0.0%
SFR15                0      0       0      16        0.0%
BITSFR16             0      0       0      17        0.0%
SFR16                0      0       0      17        0.0%
BITSFR17             0      0       0      18        0.0%
SFR17                0      0       0      18        0.0%
BITSFR18             0      0       0      19        0.0%
SFR18                0      0       0      19        0.0%
BITSFR19             0      0       0      20        0.0%
SFR19                0      0       0      20        0.0%
BITSFR20             0      0       0      21        0.0%
SFR20                0      0       0      21        0.0%
BITSFR21             0      0       0      22        0.0%
SFR21                0      0       0      22        0.0%
BITSFR22             0      0       0      23        0.0%
SFR22                0      0       0      23        0.0%
BITSFR23             0      0       0      24        0.0%
SFR23                0      0       0      24        0.0%
BITSFR24             0      0       0      25        0.0%
SFR24                0      0       0      25        0.0%
BITSFR25             0      0       0      26        0.0%
SFR25                0      0       0      26        0.0%
BITSFR26             0      0       0      27        0.0%
SFR26                0      0       0      27        0.0%
BITSFR27             0      0       0      28        0.0%
SFR27                0      0       0      28        0.0%
BITSFR28             0      0       0      29        0.0%
SFR28                0      0       0      29        0.0%
BITSFR29             0      0       0      30        0.0%
SFR29                0      0       0      30        0.0%
BITSFR30             0      0       0      31        0.0%
SFR30                0      0       0      31        0.0%
BITSFR31             0      0       0      32        0.0%
SFR31                0      0       0      32        0.0%


Microchip Technology PIC Macro Assembler V2.36 build 20220127204148 
Symbol Table                                                                                   Tue Aug 12 18:51:29 2025

                         _SPI1_ExchangeByte 020E                                          l50 021A  
                                        l37 01DE                                          l47 0212  
                                        l49 0217                                          l85 0254  
                        ?_SPI1_ExchangeByte 0070                                         l130 0268  
                                       l203 017E                                         l124 01EE  
                                       l133 0248                                         l214 025A  
                                       l127 022E                                         l241 01FE  
                                       l252 01BE                                         l253 01C0  
                                       l238 0260                                         l246 019E  
                                       l247 01A0                                         l256 0237  
                                       l264 00EF                                         l269 014A  
                                       l293 006F                                         u300 009D  
                                       u230 0217                                         u310 0102  
                                       u231 0216                                         u400 004A  
                                       u401 0049                                         u250 019E  
                                       u410 0074                                         u251 019D  
                                       u411 0073                                         u290 01BE  
                                       u291 01BD                                         u427 0032  
                                       u437 0040                                         u390 003C  
                                       u447 0068                                         u391 003B  
                                       u457 0078                                         u467 0084  
                                       u477 008E                                         u487 00EC  
                                       u497 00F3                         ??_SPI1_ExchangeByte 0070  
                                       wreg 0009                            ?_NRF_SendPayload 0072  
        __end_of_IOCAF5_SetInterruptHandler 025B                  _IOCAF5_SetInterruptHandler 0255  
                                      l1300 0175                                        l1310 022A  
                                      l1302 0178                                        l1400 00DD  
                                      l1312 022D                                        l1304 017B  
                                      l1322 01F0                                        l1330 0182  
                                      l1410 0106                                        l1402 00E9  
                                      l1306 0226                                        l1250 024F  
                                      l1314 0265                                        l1244 020F  
                                      l1324 01F2                                        l1332 0188  
                                      l1420 0126                                        l1412 0108  
                                      l1404 00EB                                        l1308 0229  
                                      l1252 0255                                        l1260 01CE  
                                      l1246 0218                                        l1254 025C  
                                      l1326 01FC                                        l1334 018A  
                                      l1422 012E                                        l1414 0110  
                                      l1406 00F0                                        l1270 01DC  
                                      l1262 01CF                                        l1350 01E2  
                                      l1510 0025                                        l1336 0194  
                                      l1328 0180                                        l1424 0134  
                                      l1416 0116                                        l1408 00F8  
                                      l1280 015C                                        l1272 0241  
                                      l1264 01D1                                        l1352 01E5  
                                      l1520 0037                                        l1512 0028  
                                      l1338 0198                                        l1426 0140  
                                      l1418 011E                                        l1370 01B4  
                                      l1362 01A2                                        l1290 0167  
                                      l1282 015F                                        l1274 014B  
                                      l1266 01D3                                        l1258 01C1  
                                      l1354 01E8                                        l1530 0050  
                                      l1522 003C                                        l1514 002A  
                                      l1428 0148                                        l1372 01B8  
                                      l1364 01A4                                        l1380 008B  
                                      l1292 0168                                        l1284 0161  
                                      l1276 014E                                        l1268 01DA  
                                      l1356 01EB                                        l1348 01DF  
                                      l1540 006D                                        l1532 0053  
                                      l1524 0045                                        l1516 002B  
                                      l1374 022F                                        l1366 01A8  
                                      l1390 00B3                                        l1382 0093  
                                      l1294 0169                                        l1286 0164  
                                      l1278 0151                                        l1542 0074  
                                      l1534 0059                                        l1526 004A  
                                      l1518 002E                                        l1376 0231  
                                      l1368 01AA                                        l1392 00B9  
                                      l1384 00A1                                        l1296 0170  
                                      l1288 0166                                        l1544 007D  
                                      l1536 0062                                        l1528 004E  
                                      l1378 0235                                        l1394 00C1  
                                      l1386 00A3                                        l1298 0172  
                                      l1546 0080                                        l1538 0064  
                                      l1396 00C9                                        l1388 00AB  
                                      l1398 00D1                                        _LATA 010C  
                                      _LATC 010E                                        _PMD0 0911  
                                      _PMD1 0912                                        _PMD2 0913  
                                      _PMD3 0914                                        _PMD4 0915  
                                      _PMD5 0916                                        _WPUA 020C  
                                      _WPUC 020E                             __end_of_NRF_SPI 0261  
                                      _main 0025                                        fsr0h 0005  
                                      fsr1h 0007                                        fsr0l 0004  
                                      indf1 0001                                        fsr1l 0006  
                                      btemp 007E                                        start 0015  
                 __end_of_SPI1_ExchangeByte 021B               __end_of_OSCILLATOR_Initialize 022F  
                                     ?_main 0070                                       i1l211 020D  
                                     i1l207 0240                                       i1l217 0269  
                                     i1l148 0013                                       _OSCEN 091D  
                                     u24_20 0206                                       u24_21 0205  
                                     u35_20 000B                                       u35_21 000A  
                                     u28_20 023D                                       u36_20 0010  
                                     u28_21 023C                                       u36_21 000F  
                                     _TRISA 008C                                       _TRISC 008E  
                        NRF_SendPayload@len 0072                     __end_of_PIN_MANAGER_IOC 0241  
                            _WDT_Initialize 0265                                       pclath 000A  
                                     status 0003                                       wtemp0 007E  
                           __initialization 0016                                __end_of_main 008B  
                  _SPI1_SetInterruptHandler 024F                 ?_INTERRUPT_InterruptManager 0070  
                                    ??_main 002F                      __end_of_WDT_Initialize 0269  
                                 ??_NRF_SPI 0071                        NRF_WriteRegister@reg 0073  
                              ?_NRF_RX_Init 0070                                      _ANSELA 018C  
                                    _ANSELC 018E                                ?_NRF_TX_Init 0070  
                                    _RC0PPS 0EA0                                      _RC2PPS 0EA2  
                                    i1l1320 020B                                      i1l1316 01FF  
                                    i1l1318 0206                                      i1l1360 023D  
                                    _ODCONA 028C                                      _ODCONC 028E  
                                    i1l1358 0238                                      i1l1474 0006  
                                    i1l1476 000B                                      i1l1478 0010  
                                    _INLVLA 038C                                      _INLVLC 038E  
                                    _OSCFRQ 091F                                ?_NRF_FlushTX 0070  
                                    _WDTCON 0097                         NRF_SendPayload@data 0074  
                 NRF_WriteRegisterMulti@len 0073                   NRF_WriteRegisterMulti@reg 0075  
                    _NRF_WriteRegisterMulti 017F                              _PMD_Initialize 0241  
                           ?_WDT_Initialize 0070  IOCAF5_SetInterruptHandler@InterruptHandler 0070  
                          ?_PIN_MANAGER_IOC 0070                                ??_IOCAF5_ISR 0070  
                         _SYSTEM_Initialize 01DF                     __end_of__initialization 0022  
                        ?_SYSTEM_Initialize 0070                              __pcstackCOMMON 0070  
                              __pidataBANK0 021B                         ??_SYSTEM_Initialize 0072  
                          NRF_SendPayload@i 0075                           ??_SPI1_Initialize 0072  
                    __end_of_PMD_Initialize 0249                       SPI1_ExchangeByte@data 0070  
                        __end_of_IOCAF5_ISR 020E                          _spi1_configuration 0261  
               ?_IOCAF5_SetInterruptHandler 0070                   __end_of_SYSTEM_Initialize 01EF  
                     NRF_TX_Init@tx_address 0079            ??_IOCAF5_DefaultInterruptHandler 0070  
           ?_IOCAF5_DefaultInterruptHandler 0070                     _IOCAF5_InterruptHandler 002B  
                                __pmaintext 0025                                  __pintentry 0004  
                           ?_PMD_Initialize 0070                                     _OSCCON1 0919  
                                   _OSCCON3 091B                                 NRF_SPI@data 0071  
                                   _OSCTUNE 091E                                     _NRF_SPI 025B  
                                   _SSP1ADD 0212                                     _SLRCONA 030C  
                                   _SLRCONC 030E                                     _SSP1BUF 0211  
                          NRF_RX_Init@F5216 0020                  ??_SPI1_SetInterruptHandler 0072  
                   NRF_WriteRegisterMulti@i 0076                  NRF_WriteRegisterMulti@data 0072  
                                   __ptext1 01DF                                     __ptext2 0265  
                                   __ptext3 01C1                                     __ptext4 024F  
                                   __ptext5 0241                                     __ptext6 014B  
                                   __ptext7 0255                                     __ptext8 0226  
                                   __ptext9 008B                       _OSCILLATOR_Initialize 0226  
                  ??_PIN_MANAGER_Initialize 0072                                   _IOCAFbits 0393  
                                 _IOCANbits 0392                                   _IOCAPbits 0391  
                      end_of_initialization 0022                                     init_ram 0249  
                                   initloop 024A                     ?_NRF_WriteRegisterMulti 0072  
                          ??_WDT_Initialize 0070                                   _PORTCbits 000E  
                                 _TRISAbits 008C                                   _TRISCbits 008E  
                          NRF_TX_Init@F5213 0025                             _SPI1_Initialize 01C1  
            __end_of_NRF_WriteRegisterMulti 01A1                           ??_NRF_SendPayload 0073  
                    ?_OSCILLATOR_Initialize 0070                         start_initialization 0016  
                          ??_PMD_Initialize 0070                                 __pdataBANK0 0020  
    __end_of_IOCAF5_DefaultInterruptHandler 026A              _IOCAF5_DefaultInterruptHandler 0269  
                                 ___latbits 0000                               __pcstackBANK0 002F  
                                  ?_NRF_SPI 0070                     __end_of_SPI1_Initialize 01DF  
                                 __pnvBANK0 002B                      _PIN_MANAGER_Initialize 014B  
                    _MSSP1_InterruptHandler 002D                ??_INTERRUPT_InterruptManager 0070  
                    NRF_WriteRegister@value 0072                               ??_NRF_RX_Init 0077  
                             ??_NRF_TX_Init 0077                               ??_NRF_FlushTX 0072  
                                  _LATAbits 010C                                    _LATCbits 010E  
                                  _PIE0bits 0090                                    _PIE1bits 0091  
                                  _PIR0bits 0010                                    _PIR1bits 0011  
                                 main@F5229 002A                                    _SPI1_Isr 0000  
                                  _SSP1CON1 0215                                    _SSP1CON2 0216  
                                  _SSP1STAT 0214                           ??_PIN_MANAGER_IOC 0070  
                 ?_SPI1_SetInterruptHandler 0070                            ?_SPI1_Initialize 0070  
                           _NRF_SendPayload 01A1                         __end_of_NRF_RX_Init 014B  
                       __end_of_NRF_TX_Init 00F0                         __end_of_NRF_FlushTX 0238  
           SPI1_SetInterruptHandler@handler 0070                     ??_OSCILLATOR_Initialize 0070  
                                  __ptext10 01A1                                    __ptext11 00F0  
                                  __ptext20 0269                                    __ptext12 017F  
                                  __ptext13 01EF                                    __ptext14 022F  
                                  __ptext15 025B                                    __ptext16 020E  
                                  __ptext18 0238                                    __ptext19 01FF  
              ??_IOCAF5_SetInterruptHandler 0072                                _SSP1CON1bits 0215  
                                _IOCAF5_ISR 01FF                                    int$flags 007E  
        __end_of_INTERRUPT_InterruptManager 0015                  _INTERRUPT_InterruptManager 0004  
                                  main@data 0030                     __end_of_NRF_SendPayload 01C1  
                               _NRF_RX_Init 00F0                                    intlevel1 0000  
                               _NRF_TX_Init 008B                           _NRF_WriteRegister 01EF  
                               _NRF_FlushTX 022F                     ?_PIN_MANAGER_Initialize 0070  
                        ?_NRF_WriteRegister 0072                         ??_NRF_WriteRegister 0073  
                             __pstringtext1 0261                       NRF_RX_Init@rx_address 0079  
                                _SSP1DATPPS 0E21                                  _SSP1CLKPPS 0E20  
                 __end_of_NRF_WriteRegister 01FF                    ??_NRF_WriteRegisterMulti 0074  
                               ?_IOCAF5_ISR 0070              __end_of_PIN_MANAGER_Initialize 017F  
                           _PIN_MANAGER_IOC 0238                  __end_of_spi1_configuration 0265  
          __end_of_SPI1_SetInterruptHandler 0255  
